# SymbolsHelper-Confirmed: 6.8.2 amd64
libQt6Location.so.6 libqt6location6 #MINVER#
* Build-Depends-Package: qt6-location-dev
 NonQt@NonQt 6.7.2
 Qt_6@Qt_6 6.6.1
 (symver)Qt_6_PRIVATE_API 6.7.2
 _Z29qml_register_types_QtLocationv@Qt_6 6.6.1
 _ZGVZN9QMetaType21registerConverterImplI5QListI10QPlaceIconE9QIterableI13QMetaSequenceEEEbSt8functionIFbPKvPvEES_S_E10unregister@Qt_6 6.6.1
 _ZGVZN9QMetaType21registerConverterImplI5QListI10QPlaceUserE9QIterableI13QMetaSequenceEEEbSt8functionIFbPKvPvEES_S_E10unregister@Qt_6 6.6.1
 _ZGVZN9QMetaType21registerConverterImplI5QListI12QGeoManeuverE9QIterableI13QMetaSequenceEEEbSt8functionIFbPKvPvEES_S_E10unregister@Qt_6 6.6.1
 _ZGVZN9QMetaType21registerConverterImplI5QListI13QGeoRectangleE9QIterableI13QMetaSequenceEEEbSt8functionIFbPKvPvEES_S_E10unregister@Qt_6 6.6.1
 _ZGVZN9QMetaType21registerConverterImplI5QListI13QPlaceRatingsE9QIterableI13QMetaSequenceEEEbSt8functionIFbPKvPvEES_S_E10unregister@Qt_6 6.6.1
 _ZGVZN9QMetaType21registerConverterImplI5QListI14QGeoCoordinateE9QIterableI13QMetaSequenceEEEbSt8functionIFbPKvPvEES_S_E10unregister@Qt_6 6.6.1
 _ZGVZN9QMetaType21registerConverterImplI5QListI14QPlaceSupplierE9QIterableI13QMetaSequenceEEEbSt8functionIFbPKvPvEES_S_E10unregister@Qt_6 6.6.1
 _ZGVZN9QMetaType21registerConverterImplI5QListI15QPlaceAttributeE9QIterableI13QMetaSequenceEEEbSt8functionIFbPKvPvEES_S_E10unregister@Qt_6 6.6.1
 _ZGVZN9QMetaType21registerConverterImplI5QListI16QGeoRouteSegmentE9QIterableI13QMetaSequenceEEEbSt8functionIFbPKvPvEES_S_E10unregister@Qt_6 6.6.1
 _ZGVZN9QMetaType21registerConverterImplI5QListI19QPlaceContactDetailE9QIterableI13QMetaSequenceEEEbSt8functionIFbPKvPvEES_S_E10unregister@Qt_6 6.6.1
 _ZGVZN9QMetaType21registerConverterImplI5QListI6QPlaceE9QIterableI13QMetaSequenceEEEbSt8functionIFbPKvPvEES_S_E10unregister@Qt_6 6.6.1
 _ZGVZN9QMetaType21registerConverterImplI5QListI9QGeoRouteE9QIterableI13QMetaSequenceEEEbSt8functionIFbPKvPvEES_S_E10unregister@Qt_6 6.6.1
 _ZGVZN9QMetaType21registerConverterImplI5QListIP10QQuickItemE9QIterableI13QMetaSequenceEEEbSt8functionIFbPKvPvEES_S_E10unregister@Qt_6 6.6.1
 _ZGVZN9QMetaType21registerConverterImplI5QListIP7QObjectE9QIterableI13QMetaSequenceEEEbSt8functionIFbPKvPvEES_S_E10unregister@Qt_6 6.6.1
 _ZGVZN9QMetaType21registerConverterImplI5QListIiE9QIterableI13QMetaSequenceEEEbSt8functionIFbPKvPvEES_S_E10unregister@Qt_6 6.6.1
 _ZGVZN9QMetaType23registerMutableViewImplI5QListI10QPlaceIconE9QIterableI13QMetaSequenceEEEbSt8functionIFbPvS8_EES_S_E10unregister@Qt_6 6.6.1
 _ZGVZN9QMetaType23registerMutableViewImplI5QListI10QPlaceUserE9QIterableI13QMetaSequenceEEEbSt8functionIFbPvS8_EES_S_E10unregister@Qt_6 6.6.1
 _ZGVZN9QMetaType23registerMutableViewImplI5QListI12QGeoManeuverE9QIterableI13QMetaSequenceEEEbSt8functionIFbPvS8_EES_S_E10unregister@Qt_6 6.6.1
 _ZGVZN9QMetaType23registerMutableViewImplI5QListI13QGeoRectangleE9QIterableI13QMetaSequenceEEEbSt8functionIFbPvS8_EES_S_E10unregister@Qt_6 6.6.1
 _ZGVZN9QMetaType23registerMutableViewImplI5QListI13QPlaceRatingsE9QIterableI13QMetaSequenceEEEbSt8functionIFbPvS8_EES_S_E10unregister@Qt_6 6.6.1
 _ZGVZN9QMetaType23registerMutableViewImplI5QListI14QGeoCoordinateE9QIterableI13QMetaSequenceEEEbSt8functionIFbPvS8_EES_S_E10unregister@Qt_6 6.6.1
 _ZGVZN9QMetaType23registerMutableViewImplI5QListI14QPlaceSupplierE9QIterableI13QMetaSequenceEEEbSt8functionIFbPvS8_EES_S_E10unregister@Qt_6 6.6.1
 _ZGVZN9QMetaType23registerMutableViewImplI5QListI15QPlaceAttributeE9QIterableI13QMetaSequenceEEEbSt8functionIFbPvS8_EES_S_E10unregister@Qt_6 6.6.1
 _ZGVZN9QMetaType23registerMutableViewImplI5QListI16QGeoRouteSegmentE9QIterableI13QMetaSequenceEEEbSt8functionIFbPvS8_EES_S_E10unregister@Qt_6 6.6.1
 _ZGVZN9QMetaType23registerMutableViewImplI5QListI19QPlaceContactDetailE9QIterableI13QMetaSequenceEEEbSt8functionIFbPvS8_EES_S_E10unregister@Qt_6 6.6.1
 _ZGVZN9QMetaType23registerMutableViewImplI5QListI6QPlaceE9QIterableI13QMetaSequenceEEEbSt8functionIFbPvS8_EES_S_E10unregister@Qt_6 6.6.1
 _ZGVZN9QMetaType23registerMutableViewImplI5QListI9QGeoRouteE9QIterableI13QMetaSequenceEEEbSt8functionIFbPvS8_EES_S_E10unregister@Qt_6 6.6.1
 _ZGVZN9QMetaType23registerMutableViewImplI5QListIP10QQuickItemE9QIterableI13QMetaSequenceEEEbSt8functionIFbPvS9_EES_S_E10unregister@Qt_6 6.6.1
 _ZGVZN9QMetaType23registerMutableViewImplI5QListIP7QObjectE9QIterableI13QMetaSequenceEEEbSt8functionIFbPvS9_EES_S_E10unregister@Qt_6 6.6.1
 _ZGVZN9QMetaType23registerMutableViewImplI5QListIiE9QIterableI13QMetaSequenceEEEbSt8functionIFbPvS7_EES_S_E10unregister@Qt_6 6.6.1
 _ZN10QPlaceIcon10setManagerEP13QPlaceManager@Qt_6 6.6.1
 _ZN10QPlaceIcon13setParametersERK4QMapI7QString8QVariantE@Qt_6 6.6.1
 _ZN10QPlaceIcon16staticMetaObjectE@Qt_6 6.6.1
 _ZN10QPlaceIcon9SingleUrlE@Qt_6 6.6.1
 _ZN10QPlaceIconC1ERKS_@Qt_6 6.6.1
 _ZN10QPlaceIconC1Ev@Qt_6 6.6.1
 _ZN10QPlaceIconC2ERKS_@Qt_6 6.6.1
 _ZN10QPlaceIconC2Ev@Qt_6 6.6.1
 _ZN10QPlaceIconD1Ev@Qt_6 6.6.1
 _ZN10QPlaceIconD2Ev@Qt_6 6.6.1
 _ZN10QPlaceIconaSERKS_@Qt_6 6.6.1
 _ZN10QPlaceUser16staticMetaObjectE@Qt_6 6.6.1
 _ZN10QPlaceUser7setNameERK7QString@Qt_6 6.6.1
 _ZN10QPlaceUser9setUserIdERK7QString@Qt_6 6.6.1
 _ZN10QPlaceUserC1ERKS_@Qt_6 6.6.1
 _ZN10QPlaceUserC1Ev@Qt_6 6.6.1
 _ZN10QPlaceUserC2ERKS_@Qt_6 6.6.1
 _ZN10QPlaceUserC2Ev@Qt_6 6.6.1
 _ZN10QPlaceUserD1Ev@Qt_6 6.6.1
 _ZN10QPlaceUserD2Ev@Qt_6 6.6.1
 _ZN10QPlaceUseraSERKS_@Qt_6 6.6.1
 _ZN11QPlaceReply11qt_metacallEN11QMetaObject4CallEiPPv@Qt_6 6.6.1
 _ZN11QPlaceReply11qt_metacastEPKc@Qt_6 6.6.1
 _ZN11QPlaceReply11setFinishedEb@Qt_6 6.6.1
 _ZN11QPlaceReply13errorOccurredENS_5ErrorERK7QString@Qt_6 6.6.1
 _ZN11QPlaceReply14contentUpdatedEv@Qt_6 6.6.1
 _ZN11QPlaceReply16staticMetaObjectE@Qt_6 6.6.1
 _ZN11QPlaceReply5abortEv@Qt_6 6.6.1
 _ZN11QPlaceReply7abortedEv@Qt_6 6.6.1
 _ZN11QPlaceReply8finishedEv@Qt_6 6.6.1
 _ZN11QPlaceReply8setErrorENS_5ErrorERK7QString@Qt_6 6.6.1
 _ZN11QPlaceReplyC1EP7QObject@Qt_6 6.6.1
 _ZN11QPlaceReplyC2EP7QObject@Qt_6 6.6.1
 _ZN11QPlaceReplyD0Ev@Qt_6 6.6.1
 _ZN11QPlaceReplyD1Ev@Qt_6 6.6.1
 _ZN11QPlaceReplyD2Ev@Qt_6 6.6.1
 _ZN12QGeoManeuver11setPositionERK14QGeoCoordinate@Qt_6 6.6.1
 _ZN12QGeoManeuver11setWaypointERK14QGeoCoordinate@Qt_6 6.6.1
 _ZN12QGeoManeuver12setDirectionENS_20InstructionDirectionE@Qt_6 6.6.1
 _ZN12QGeoManeuver16staticMetaObjectE@Qt_6 6.6.1
 _ZN12QGeoManeuver18setInstructionTextERK7QString@Qt_6 6.6.1
 _ZN12QGeoManeuver21setExtendedAttributesERK4QMapI7QString8QVariantE@Qt_6 6.6.1
 _ZN12QGeoManeuver24setTimeToNextInstructionEi@Qt_6 6.6.1
 _ZN12QGeoManeuver28setDistanceToNextInstructionEd@Qt_6 6.6.1
 _ZN12QGeoManeuverC1ERKS_@Qt_6 6.6.1
 _ZN12QGeoManeuverC1Ev@Qt_6 6.6.1
 _ZN12QGeoManeuverC2ERKS_@Qt_6 6.6.1
 _ZN12QGeoManeuverC2Ev@Qt_6 6.6.1
 _ZN12QGeoManeuverD1Ev@Qt_6 6.6.1
 _ZN12QGeoManeuverD2Ev@Qt_6 6.6.1
 _ZN12QGeoManeuveraSERKS_@Qt_6 6.6.1
 _ZN12QPlaceResult11setDistanceEd@Qt_6 6.6.1
 _ZN12QPlaceResult12setSponsoredEb@Qt_6 6.6.1
 _ZN12QPlaceResult8setPlaceERK6QPlace@Qt_6 6.6.1
 _ZN12QPlaceResultC1ERK18QPlaceSearchResult@Qt_6 6.6.1
 _ZN12QPlaceResultC1Ev@Qt_6 6.6.1
 _ZN12QPlaceResultC2ERK18QPlaceSearchResult@Qt_6 6.6.1
 _ZN12QPlaceResultC2Ev@Qt_6 6.6.1
 _ZN12QPlaceResultD0Ev@Qt_6 6.6.1
 _ZN12QPlaceResultD1Ev@Qt_6 6.6.1
 _ZN12QPlaceResultD2Ev@Qt_6 6.6.1
 _ZN13QGeoCodeReply11addLocationERK12QGeoLocation@Qt_6 6.6.1
 _ZN13QGeoCodeReply11qt_metacallEN11QMetaObject4CallEiPPv@Qt_6 6.6.1
 _ZN13QGeoCodeReply11qt_metacastEPKc@Qt_6 6.6.1
 _ZN13QGeoCodeReply11setFinishedEb@Qt_6 6.6.1
 _ZN13QGeoCodeReply11setViewportERK9QGeoShape@Qt_6 6.6.1
 _ZN13QGeoCodeReply12setLocationsERK5QListI12QGeoLocationE@Qt_6 6.6.1
 _ZN13QGeoCodeReply13errorOccurredENS_5ErrorERK7QString@Qt_6 6.6.1
 _ZN13QGeoCodeReply16staticMetaObjectE@Qt_6 6.6.1
 _ZN13QGeoCodeReply5abortEv@Qt_6 6.6.1
 _ZN13QGeoCodeReply7abortedEv@Qt_6 6.6.1
 _ZN13QGeoCodeReply8finishedEv@Qt_6 6.6.1
 _ZN13QGeoCodeReply8setErrorENS_5ErrorERK7QString@Qt_6 6.6.1
 (subst)_ZN13QGeoCodeReply8setLimitE{qptrdiff}@Qt_6 6.6.1
 (subst)_ZN13QGeoCodeReply9setOffsetE{qptrdiff}@Qt_6 6.6.1
 _ZN13QGeoCodeReplyC1ENS_5ErrorERK7QStringP7QObject@Qt_6 6.6.1
 _ZN13QGeoCodeReplyC1EP7QObject@Qt_6 6.6.1
 _ZN13QGeoCodeReplyC2ENS_5ErrorERK7QStringP7QObject@Qt_6 6.6.1
 _ZN13QGeoCodeReplyC2EP7QObject@Qt_6 6.6.1
 _ZN13QGeoCodeReplyD0Ev@Qt_6 6.6.1
 _ZN13QGeoCodeReplyD1Ev@Qt_6 6.6.1
 _ZN13QGeoCodeReplyD2Ev@Qt_6 6.6.1
 _ZN13QMetaSequence12MetaSequenceI5QListI10QPlaceIconEE5valueE@Qt_6 6.6.1
 _ZN13QMetaSequence12MetaSequenceI5QListI10QPlaceUserEE5valueE@Qt_6 6.6.1
 _ZN13QMetaSequence12MetaSequenceI5QListI12QGeoManeuverEE5valueE@Qt_6 6.6.1
 _ZN13QMetaSequence12MetaSequenceI5QListI13QGeoRectangleEE5valueE@Qt_6 6.6.1
 _ZN13QMetaSequence12MetaSequenceI5QListI13QPlaceRatingsEE5valueE@Qt_6 6.6.1
 _ZN13QMetaSequence12MetaSequenceI5QListI14QGeoCoordinateEE5valueE@Qt_6 6.6.1
 _ZN13QMetaSequence12MetaSequenceI5QListI14QPlaceSupplierEE5valueE@Qt_6 6.6.1
 _ZN13QMetaSequence12MetaSequenceI5QListI15QPlaceAttributeEE5valueE@Qt_6 6.6.1
 _ZN13QMetaSequence12MetaSequenceI5QListI16QGeoRouteSegmentEE5valueE@Qt_6 6.6.1
 _ZN13QMetaSequence12MetaSequenceI5QListI19QPlaceContactDetailEE5valueE@Qt_6 6.6.1
 _ZN13QMetaSequence12MetaSequenceI5QListI6QPlaceEE5valueE@Qt_6 6.6.1
 _ZN13QMetaSequence12MetaSequenceI5QListI9QGeoRouteEE5valueE@Qt_6 6.6.1
 _ZN13QMetaSequence12MetaSequenceI5QListIP10QQuickItemEE5valueE@Qt_6 6.6.1
 _ZN13QMetaSequence12MetaSequenceI5QListIP7QObjectEE5valueE@Qt_6 6.6.1
 _ZN13QMetaSequence12MetaSequenceI5QListIiEE5valueE@Qt_6 6.6.1
 _ZN13QPlaceContent6detachEv@Qt_6 6.6.1
 _ZN13QPlaceContent8setValueENS_7DataTagERK8QVariant@Qt_6 6.6.1
 _ZN13QPlaceContentC1ENS_4TypeE@Qt_6 6.6.1
 _ZN13QPlaceContentC1ERKS_@Qt_6 6.6.1
 _ZN13QPlaceContentC2ENS_4TypeE@Qt_6 6.6.1
 _ZN13QPlaceContentC2ERKS_@Qt_6 6.6.1
 _ZN13QPlaceContentD1Ev@Qt_6 6.6.1
 _ZN13QPlaceContentD2Ev@Qt_6 6.6.1
 _ZN13QPlaceContentaSERKS_@Qt_6 6.6.1
 _ZN13QPlaceIdReply11qt_metacallEN11QMetaObject4CallEiPPv@Qt_6 6.6.1
 _ZN13QPlaceIdReply11qt_metacastEPKc@Qt_6 6.6.1
 _ZN13QPlaceIdReply16staticMetaObjectE@Qt_6 6.6.1
 _ZN13QPlaceIdReply5setIdERK7QString@Qt_6 6.6.1
 _ZN13QPlaceIdReplyC1ENS_13OperationTypeEP7QObject@Qt_6 6.6.1
 _ZN13QPlaceIdReplyC2ENS_13OperationTypeEP7QObject@Qt_6 6.6.1
 _ZN13QPlaceIdReplyD0Ev@Qt_6 6.6.1
 _ZN13QPlaceIdReplyD1Ev@Qt_6 6.6.1
 _ZN13QPlaceIdReplyD2Ev@Qt_6 6.6.1
 _ZN13QPlaceManager10placeAddedERK7QString@Qt_6 6.6.1
 _ZN13QPlaceManager10setLocalesERK5QListI7QLocaleE@Qt_6 6.6.1
 _ZN13QPlaceManager11dataChangedEv@Qt_6 6.6.1
 _ZN13QPlaceManager11qt_metacallEN11QMetaObject4CallEiPPv@Qt_6 6.6.1
 _ZN13QPlaceManager11qt_metacastEPKc@Qt_6 6.6.1
 _ZN13QPlaceManager11removePlaceERK7QString@Qt_6 6.6.1
 _ZN13QPlaceManager12placeRemovedERK7QString@Qt_6 6.6.1
 _ZN13QPlaceManager12placeUpdatedERK7QString@Qt_6 6.6.1
 _ZN13QPlaceManager12saveCategoryERK14QPlaceCategoryRK7QString@Qt_6 6.6.1
 _ZN13QPlaceManager13categoryAddedERK14QPlaceCategoryRK7QString@Qt_6 6.6.1
 _ZN13QPlaceManager13errorOccurredEP11QPlaceReplyNS0_5ErrorERK7QString@Qt_6 6.6.1
 _ZN13QPlaceManager14removeCategoryERK7QString@Qt_6 6.6.1
 _ZN13QPlaceManager15categoryRemovedERK7QStringS2_@Qt_6 6.6.1
 _ZN13QPlaceManager15categoryUpdatedERK14QPlaceCategoryRK7QString@Qt_6 6.6.1
 _ZN13QPlaceManager16staticMetaObjectE@Qt_6 6.6.1
 _ZN13QPlaceManager20initializeCategoriesEv@Qt_6 6.6.1
 _ZN13QPlaceManager8finishedEP11QPlaceReply@Qt_6 6.6.1
 _ZN13QPlaceManager9savePlaceERK6QPlace@Qt_6 6.6.1
 _ZN13QPlaceManager9setLocaleERK7QLocale@Qt_6 6.6.1
 _ZN13QPlaceManagerC1EP19QPlaceManagerEngineP7QObject@Qt_6 6.6.1
 _ZN13QPlaceManagerC2EP19QPlaceManagerEngineP7QObject@Qt_6 6.6.1
 _ZN13QPlaceManagerD0Ev@Qt_6 6.6.1
 _ZN13QPlaceManagerD1Ev@Qt_6 6.6.1
 _ZN13QPlaceManagerD2Ev@Qt_6 6.6.1
 _ZN13QPlaceRatings10setAverageEd@Qt_6 6.6.1
 _ZN13QPlaceRatings10setMaximumEd@Qt_6 6.6.1
 _ZN13QPlaceRatings16staticMetaObjectE@Qt_6 6.6.1
 _ZN13QPlaceRatings8setCountEi@Qt_6 6.6.1
 _ZN13QPlaceRatingsC1ERKS_@Qt_6 6.6.1
 _ZN13QPlaceRatingsC1Ev@Qt_6 6.6.1
 _ZN13QPlaceRatingsC2ERKS_@Qt_6 6.6.1
 _ZN13QPlaceRatingsC2Ev@Qt_6 6.6.1
 _ZN13QPlaceRatingsD1Ev@Qt_6 6.6.1
 _ZN13QPlaceRatingsD2Ev@Qt_6 6.6.1
 _ZN13QPlaceRatingsaSERKS_@Qt_6 6.6.1
 _ZN14QGeoRouteReply11qt_metacallEN11QMetaObject4CallEiPPv@Qt_6 6.6.1
 _ZN14QGeoRouteReply11qt_metacastEPKc@Qt_6 6.6.1
 _ZN14QGeoRouteReply11setFinishedEb@Qt_6 6.6.1
 _ZN14QGeoRouteReply13errorOccurredENS_5ErrorERK7QString@Qt_6 6.6.1
 _ZN14QGeoRouteReply16staticMetaObjectE@Qt_6 6.6.1
 _ZN14QGeoRouteReply5abortEv@Qt_6 6.6.1
 _ZN14QGeoRouteReply7abortedEv@Qt_6 6.6.1
 _ZN14QGeoRouteReply8finishedEv@Qt_6 6.6.1
 _ZN14QGeoRouteReply8setErrorENS_5ErrorERK7QString@Qt_6 6.6.1
 _ZN14QGeoRouteReply9addRoutesERK5QListI9QGeoRouteE@Qt_6 6.6.1
 _ZN14QGeoRouteReply9setRoutesERK5QListI9QGeoRouteE@Qt_6 6.6.1
 _ZN14QGeoRouteReplyC1ENS_5ErrorERK7QStringP7QObject@Qt_6 6.6.1
 _ZN14QGeoRouteReplyC1ERK16QGeoRouteRequestP7QObject@Qt_6 6.6.1
 _ZN14QGeoRouteReplyC2ENS_5ErrorERK7QStringP7QObject@Qt_6 6.6.1
 _ZN14QGeoRouteReplyC2ERK16QGeoRouteRequestP7QObject@Qt_6 6.6.1
 _ZN14QGeoRouteReplyD0Ev@Qt_6 6.6.1
 _ZN14QGeoRouteReplyD1Ev@Qt_6 6.6.1
 _ZN14QGeoRouteReplyD2Ev@Qt_6 6.6.1
 _ZN14QPlaceCategory13setCategoryIdERK7QString@Qt_6 6.6.1
 _ZN14QPlaceCategory13setVisibilityEN9QLocation10VisibilityE@Qt_6 6.6.1
 _ZN14QPlaceCategory7setIconERK10QPlaceIcon@Qt_6 6.6.1
 _ZN14QPlaceCategory7setNameERK7QString@Qt_6 6.6.1
 _ZN14QPlaceCategoryC1ERKS_@Qt_6 6.6.1
 _ZN14QPlaceCategoryC1Ev@Qt_6 6.6.1
 _ZN14QPlaceCategoryC2ERKS_@Qt_6 6.6.1
 _ZN14QPlaceCategoryC2Ev@Qt_6 6.6.1
 _ZN14QPlaceCategoryD1Ev@Qt_6 6.6.1
 _ZN14QPlaceCategoryD2Ev@Qt_6 6.6.1
 _ZN14QPlaceCategoryaSERKS_@Qt_6 6.6.1
 _ZN14QPlaceSupplier13setSupplierIdERK7QString@Qt_6 6.6.1
 _ZN14QPlaceSupplier16staticMetaObjectE@Qt_6 6.6.1
 _ZN14QPlaceSupplier6setUrlERK4QUrl@Qt_6 6.6.1
 _ZN14QPlaceSupplier7setIconERK10QPlaceIcon@Qt_6 6.6.1
 _ZN14QPlaceSupplier7setNameERK7QString@Qt_6 6.6.1
 _ZN14QPlaceSupplierC1ERKS_@Qt_6 6.6.1
 _ZN14QPlaceSupplierC1Ev@Qt_6 6.6.1
 _ZN14QPlaceSupplierC2ERKS_@Qt_6 6.6.1
 _ZN14QPlaceSupplierC2Ev@Qt_6 6.6.1
 _ZN14QPlaceSupplierD1Ev@Qt_6 6.6.1
 _ZN14QPlaceSupplierD2Ev@Qt_6 6.6.1
 _ZN14QPlaceSupplieraSERKS_@Qt_6 6.6.1
 _ZN15QPlaceAttribute12OpeningHoursE@Qt_6 6.6.1
 _ZN15QPlaceAttribute16staticMetaObjectE@Qt_6 6.6.1
 _ZN15QPlaceAttribute7PaymentE@Qt_6 6.6.1
 _ZN15QPlaceAttribute7setTextERK7QString@Qt_6 6.6.1
 _ZN15QPlaceAttribute8ProviderE@Qt_6 6.6.1
 _ZN15QPlaceAttribute8setLabelERK7QString@Qt_6 6.6.1
 _ZN15QPlaceAttributeC1ERKS_@Qt_6 6.6.1
 _ZN15QPlaceAttributeC1Ev@Qt_6 6.6.1
 _ZN15QPlaceAttributeC2ERKS_@Qt_6 6.6.1
 _ZN15QPlaceAttributeC2Ev@Qt_6 6.6.1
 _ZN15QPlaceAttributeD1Ev@Qt_6 6.6.1
 _ZN15QPlaceAttributeD2Ev@Qt_6 6.6.1
 _ZN15QPlaceAttributeaSERKS_@Qt_6 6.6.1
 _ZN16QGeoRouteRequest12setWaypointsERK5QListI14QGeoCoordinateE@Qt_6 6.6.1
 _ZN16QGeoRouteRequest14setTravelModesE6QFlagsINS_10TravelModeEE@Qt_6 6.6.1
 _ZN16QGeoRouteRequest15setExcludeAreasERK5QListI13QGeoRectangleE@Qt_6 6.6.1
 _ZN16QGeoRouteRequest16setDepartureTimeERK9QDateTime@Qt_6 6.6.1
 _ZN16QGeoRouteRequest16setFeatureWeightENS_11FeatureTypeENS_13FeatureWeightE@Qt_6 6.6.1
 _ZN16QGeoRouteRequest16setSegmentDetailENS_13SegmentDetailE@Qt_6 6.6.1
 _ZN16QGeoRouteRequest17setManeuverDetailENS_14ManeuverDetailE@Qt_6 6.6.1
 _ZN16QGeoRouteRequest20setRouteOptimizationE6QFlagsINS_17RouteOptimizationEE@Qt_6 6.6.1
 _ZN16QGeoRouteRequest26setNumberAlternativeRoutesEi@Qt_6 6.6.1
 _ZN16QGeoRouteRequestC1ERK14QGeoCoordinateS2_@Qt_6 6.6.1
 _ZN16QGeoRouteRequestC1ERK5QListI14QGeoCoordinateE@Qt_6 6.6.1
 _ZN16QGeoRouteRequestC1ERKS_@Qt_6 6.6.1
 _ZN16QGeoRouteRequestC2ERK14QGeoCoordinateS2_@Qt_6 6.6.1
 _ZN16QGeoRouteRequestC2ERK5QListI14QGeoCoordinateE@Qt_6 6.6.1
 _ZN16QGeoRouteRequestC2ERKS_@Qt_6 6.6.1
 _ZN16QGeoRouteRequestD1Ev@Qt_6 6.6.1
 _ZN16QGeoRouteRequestD2Ev@Qt_6 6.6.1
 _ZN16QGeoRouteRequestaSERKS_@Qt_6 6.6.1
 _ZN16QGeoRouteSegment11setDistanceEd@Qt_6 6.6.1
 _ZN16QGeoRouteSegment11setManeuverERK12QGeoManeuver@Qt_6 6.6.1
 _ZN16QGeoRouteSegment13setTravelTimeEi@Qt_6 6.6.1
 _ZN16QGeoRouteSegment16staticMetaObjectE@Qt_6 6.6.1
 _ZN16QGeoRouteSegment19setNextRouteSegmentERKS_@Qt_6 6.6.1
 _ZN16QGeoRouteSegment7setPathERK5QListI14QGeoCoordinateE@Qt_6 6.6.1
 _ZN16QGeoRouteSegmentC1ERKS_@Qt_6 6.6.1
 _ZN16QGeoRouteSegmentC1Ev@Qt_6 6.6.1
 _ZN16QGeoRouteSegmentC2ERKS_@Qt_6 6.6.1
 _ZN16QGeoRouteSegmentC2Ev@Qt_6 6.6.1
 _ZN16QGeoRouteSegmentD1Ev@Qt_6 6.6.1
 _ZN16QGeoRouteSegmentD2Ev@Qt_6 6.6.1
 _ZN16QGeoRouteSegmentaSERKS_@Qt_6 6.6.1
 _ZN16QPlaceMatchReply10setRequestERK18QPlaceMatchRequest@Qt_6 6.6.1
 _ZN16QPlaceMatchReply11qt_metacallEN11QMetaObject4CallEiPPv@Qt_6 6.6.1
 _ZN16QPlaceMatchReply11qt_metacastEPKc@Qt_6 6.6.1
 _ZN16QPlaceMatchReply16staticMetaObjectE@Qt_6 6.6.1
 _ZN16QPlaceMatchReply9setPlacesERK5QListI6QPlaceE@Qt_6 6.6.1
 _ZN16QPlaceMatchReplyC1EP7QObject@Qt_6 6.6.1
 _ZN16QPlaceMatchReplyC2EP7QObject@Qt_6 6.6.1
 _ZN16QPlaceMatchReplyD0Ev@Qt_6 6.6.1
 _ZN16QPlaceMatchReplyD1Ev@Qt_6 6.6.1
 _ZN16QPlaceMatchReplyD2Ev@Qt_6 6.6.1
 _ZN17QGeoCodingManager11qt_metacallEN11QMetaObject4CallEiPPv@Qt_6 6.6.1
 _ZN17QGeoCodingManager11qt_metacastEPKc@Qt_6 6.6.1
 _ZN17QGeoCodingManager13errorOccurredEP13QGeoCodeReplyNS0_5ErrorERK7QString@Qt_6 6.6.1
 _ZN17QGeoCodingManager14reverseGeocodeERK14QGeoCoordinateRK9QGeoShape@Qt_6 6.6.1
 _ZN17QGeoCodingManager16staticMetaObjectE@Qt_6 6.6.1
 _ZN17QGeoCodingManager7geocodeERK11QGeoAddressRK9QGeoShape@Qt_6 6.6.1
 _ZN17QGeoCodingManager7geocodeERK7QStringiiRK9QGeoShape@Qt_6 6.6.1
 _ZN17QGeoCodingManager8finishedEP13QGeoCodeReply@Qt_6 6.6.1
 _ZN17QGeoCodingManager9setLocaleERK7QLocale@Qt_6 6.6.1
 _ZN17QGeoCodingManagerC1EP23QGeoCodingManagerEngineP7QObject@Qt_6 6.6.1
 _ZN17QGeoCodingManagerC2EP23QGeoCodingManagerEngineP7QObject@Qt_6 6.6.1
 _ZN17QGeoCodingManagerD0Ev@Qt_6 6.6.1
 _ZN17QGeoCodingManagerD1Ev@Qt_6 6.6.1
 _ZN17QGeoCodingManagerD2Ev@Qt_6 6.6.1
 _ZN17QPlaceSearchReply10setRequestERK19QPlaceSearchRequest@Qt_6 6.6.1
 _ZN17QPlaceSearchReply10setResultsERK5QListI18QPlaceSearchResultE@Qt_6 6.6.1
 _ZN17QPlaceSearchReply11qt_metacallEN11QMetaObject4CallEiPPv@Qt_6 6.6.1
 _ZN17QPlaceSearchReply11qt_metacastEPKc@Qt_6 6.6.1
 _ZN17QPlaceSearchReply16staticMetaObjectE@Qt_6 6.6.1
 _ZN17QPlaceSearchReply18setNextPageRequestERK19QPlaceSearchRequest@Qt_6 6.6.1
 _ZN17QPlaceSearchReply22setPreviousPageRequestERK19QPlaceSearchRequest@Qt_6 6.6.1
 _ZN17QPlaceSearchReplyC1EP7QObject@Qt_6 6.6.1
 _ZN17QPlaceSearchReplyC2EP7QObject@Qt_6 6.6.1
 _ZN17QPlaceSearchReplyD0Ev@Qt_6 6.6.1
 _ZN17QPlaceSearchReplyD1Ev@Qt_6 6.6.1
 _ZN17QPlaceSearchReplyD2Ev@Qt_6 6.6.1
 _ZN18QGeoRoutingManager11qt_metacallEN11QMetaObject4CallEiPPv@Qt_6 6.6.1
 _ZN18QGeoRoutingManager11qt_metacastEPKc@Qt_6 6.6.1
 _ZN18QGeoRoutingManager11updateRouteERK9QGeoRouteRK14QGeoCoordinate@Qt_6 6.6.1
 _ZN18QGeoRoutingManager13errorOccurredEP14QGeoRouteReplyNS0_5ErrorERK7QString@Qt_6 6.6.1
 _ZN18QGeoRoutingManager14calculateRouteERK16QGeoRouteRequest@Qt_6 6.6.1
 _ZN18QGeoRoutingManager16staticMetaObjectE@Qt_6 6.6.1
 _ZN18QGeoRoutingManager20setMeasurementSystemEN7QLocale17MeasurementSystemE@Qt_6 6.6.1
 _ZN18QGeoRoutingManager8finishedEP14QGeoRouteReply@Qt_6 6.6.1
 _ZN18QGeoRoutingManager9setLocaleERK7QLocale@Qt_6 6.6.1
 _ZN18QGeoRoutingManagerC1EP24QGeoRoutingManagerEngineP7QObject@Qt_6 6.6.1
 _ZN18QGeoRoutingManagerC2EP24QGeoRoutingManagerEngineP7QObject@Qt_6 6.6.1
 _ZN18QGeoRoutingManagerD0Ev@Qt_6 6.6.1
 _ZN18QGeoRoutingManagerD1Ev@Qt_6 6.6.1
 _ZN18QGeoRoutingManagerD2Ev@Qt_6 6.6.1
 _ZN18QPlaceContentReply10setContentERK4QMapIi13QPlaceContentE@Qt_6 6.6.1
 _ZN18QPlaceContentReply10setRequestERK20QPlaceContentRequest@Qt_6 6.6.1
 _ZN18QPlaceContentReply11qt_metacallEN11QMetaObject4CallEiPPv@Qt_6 6.6.1
 _ZN18QPlaceContentReply11qt_metacastEPKc@Qt_6 6.6.1
 _ZN18QPlaceContentReply13setTotalCountEi@Qt_6 6.6.1
 _ZN18QPlaceContentReply16staticMetaObjectE@Qt_6 6.6.1
 _ZN18QPlaceContentReply18setNextPageRequestERK20QPlaceContentRequest@Qt_6 6.6.1
 _ZN18QPlaceContentReply22setPreviousPageRequestERK20QPlaceContentRequest@Qt_6 6.6.1
 _ZN18QPlaceContentReplyC1EP7QObject@Qt_6 6.6.1
 _ZN18QPlaceContentReplyC2EP7QObject@Qt_6 6.6.1
 _ZN18QPlaceContentReplyD0Ev@Qt_6 6.6.1
 _ZN18QPlaceContentReplyD1Ev@Qt_6 6.6.1
 _ZN18QPlaceContentReplyD2Ev@Qt_6 6.6.1
 _ZN18QPlaceDetailsReply11qt_metacallEN11QMetaObject4CallEiPPv@Qt_6 6.6.1
 _ZN18QPlaceDetailsReply11qt_metacastEPKc@Qt_6 6.6.1
 _ZN18QPlaceDetailsReply16staticMetaObjectE@Qt_6 6.6.1
 _ZN18QPlaceDetailsReply8setPlaceERK6QPlace@Qt_6 6.6.1
 _ZN18QPlaceDetailsReplyC1EP7QObject@Qt_6 6.6.1
 _ZN18QPlaceDetailsReplyC2EP7QObject@Qt_6 6.6.1
 _ZN18QPlaceDetailsReplyD0Ev@Qt_6 6.6.1
 _ZN18QPlaceDetailsReplyD1Ev@Qt_6 6.6.1
 _ZN18QPlaceDetailsReplyD2Ev@Qt_6 6.6.1
 _ZN18QPlaceMatchRequest10setResultsERK5QListI18QPlaceSearchResultE@Qt_6 6.6.1
 _ZN18QPlaceMatchRequest13AlternativeIdE@Qt_6 6.6.1
 _ZN18QPlaceMatchRequest13setParametersERK4QMapI7QString8QVariantE@Qt_6 6.6.1
 _ZN18QPlaceMatchRequest5clearEv@Qt_6 6.6.1
 _ZN18QPlaceMatchRequest9setPlacesERK5QListI6QPlaceE@Qt_6 6.6.1
 _ZN18QPlaceMatchRequestC1ERKS_@Qt_6 6.6.1
 _ZN18QPlaceMatchRequestC1Ev@Qt_6 6.6.1
 _ZN18QPlaceMatchRequestC2ERKS_@Qt_6 6.6.1
 _ZN18QPlaceMatchRequestC2Ev@Qt_6 6.6.1
 _ZN18QPlaceMatchRequestD1Ev@Qt_6 6.6.1
 _ZN18QPlaceMatchRequestD2Ev@Qt_6 6.6.1
 _ZN18QPlaceMatchRequestaSERKS_@Qt_6 6.6.1
 _ZN18QPlaceSearchResult7setIconERK10QPlaceIcon@Qt_6 6.6.1
 _ZN18QPlaceSearchResult8setTitleERK7QString@Qt_6 6.6.1
 _ZN18QPlaceSearchResultC1ERKS_@Qt_6 6.6.1
 _ZN18QPlaceSearchResultC1Ev@Qt_6 6.6.1
 _ZN18QPlaceSearchResultC2ERKS_@Qt_6 6.6.1
 _ZN18QPlaceSearchResultC2Ev@Qt_6 6.6.1
 _ZN18QPlaceSearchResultD0Ev@Qt_6 6.6.1
 _ZN18QPlaceSearchResultD1Ev@Qt_6 6.6.1
 _ZN18QPlaceSearchResultD2Ev@Qt_6 6.6.1
 _ZN18QPlaceSearchResultaSERKS_@Qt_6 6.6.1
 (optional=templinst)_ZN18QSharedDataPointerI13QPlacePrivateED1Ev@Qt_6 6.8.2
 (optional=templinst)_ZN18QSharedDataPointerI13QPlacePrivateED2Ev@Qt_6 6.8.2
 (optional=templinst)_ZN18QSharedDataPointerI17QPlaceIconPrivateED1Ev@Qt_6 6.8.2
 (optional=templinst)_ZN18QSharedDataPointerI17QPlaceIconPrivateED2Ev@Qt_6 6.8.2
 (optional=templinst)_ZN18QSharedDataPointerI17QPlaceUserPrivateED1Ev@Qt_6 6.8.2
 (optional=templinst)_ZN18QSharedDataPointerI17QPlaceUserPrivateED2Ev@Qt_6 6.8.2
 (optional=templinst)_ZN18QSharedDataPointerI18QGeoMapTypePrivateED1Ev@Qt_6 6.8.2
 (optional=templinst)_ZN18QSharedDataPointerI18QGeoMapTypePrivateED2Ev@Qt_6 6.8.2
 (optional=templinst)_ZN18QSharedDataPointerI19QGeoManeuverPrivateED1Ev@Qt_6 6.8.2
 (optional=templinst)_ZN18QSharedDataPointerI19QGeoManeuverPrivateED2Ev@Qt_6 6.8.2
 (optional=templinst)_ZN18QSharedDataPointerI19QGeoTileSpecPrivateED1Ev@Qt_6 6.8.2
 (optional=templinst)_ZN18QSharedDataPointerI19QGeoTileSpecPrivateED2Ev@Qt_6 6.8.2
 (optional=templinst)_ZN18QSharedDataPointerI20QPlaceRatingsPrivateED1Ev@Qt_6 6.8.2
 (optional=templinst)_ZN18QSharedDataPointerI20QPlaceRatingsPrivateED2Ev@Qt_6 6.8.2
 (optional=templinst)_ZN18QSharedDataPointerI21QGeoCameraDataPrivateED1Ev@Qt_6 6.6.1
 (optional=templinst)_ZN18QSharedDataPointerI21QGeoCameraDataPrivateED2Ev@Qt_6 6.6.1
 (optional=templinst)_ZN18QSharedDataPointerI21QPlaceCategoryPrivateED1Ev@Qt_6 6.8.2
 (optional=templinst)_ZN18QSharedDataPointerI21QPlaceCategoryPrivateED2Ev@Qt_6 6.8.2
 (optional=templinst)_ZN18QSharedDataPointerI21QPlaceSupplierPrivateED1Ev@Qt_6 6.8.2
 (optional=templinst)_ZN18QSharedDataPointerI21QPlaceSupplierPrivateED2Ev@Qt_6 6.8.2
 (optional=templinst)_ZN18QSharedDataPointerI22QPlaceAttributePrivateED1Ev@Qt_6 6.8.2
 (optional=templinst)_ZN18QSharedDataPointerI22QPlaceAttributePrivateED2Ev@Qt_6 6.8.2
 (optional=templinst)_ZN18QSharedDataPointerI25QPlaceMatchRequestPrivateED1Ev@Qt_6 6.6.1
 (optional=templinst)_ZN18QSharedDataPointerI25QPlaceMatchRequestPrivateED2Ev@Qt_6 6.6.1
 (optional=templinst)_ZN18QSharedDataPointerI26QPlaceContactDetailPrivateED1Ev@Qt_6 6.8.2
 (optional=templinst)_ZN18QSharedDataPointerI26QPlaceContactDetailPrivateED2Ev@Qt_6 6.8.2
 (optional=templinst)_ZN18QSharedDataPointerI26QPlaceSearchRequestPrivateED1Ev@Qt_6 6.8.2
 (optional=templinst)_ZN18QSharedDataPointerI26QPlaceSearchRequestPrivateED2Ev@Qt_6 6.8.2
 (optional=templinst)_ZN18QSharedDataPointerI27QPlaceContentRequestPrivateED1Ev@Qt_6 6.8.2
 (optional=templinst)_ZN18QSharedDataPointerI27QPlaceContentRequestPrivateED2Ev@Qt_6 6.8.2
 (optional=templinst)_ZN18QSharedDataPointerI29QGeoCameraCapabilitiesPrivateED1Ev@Qt_6 6.6.1
 (optional=templinst)_ZN18QSharedDataPointerI29QGeoCameraCapabilitiesPrivateED2Ev@Qt_6 6.6.1
 _ZN19QGeoServiceProvider11qt_metacallEN11QMetaObject4CallEiPPv@Qt_6 6.6.1
 _ZN19QGeoServiceProvider11qt_metacastEPKc@Qt_6 6.6.1
 _ZN19QGeoServiceProvider12setQmlEngineEP10QQmlEngine@Qt_6 6.6.1
 _ZN19QGeoServiceProvider13setParametersERK4QMapI7QString8QVariantE@Qt_6 6.6.1
 _ZN19QGeoServiceProvider16staticMetaObjectE@Qt_6 6.6.1
 _ZN19QGeoServiceProvider20setAllowExperimentalEb@Qt_6 6.6.1
 _ZN19QGeoServiceProvider25availableServiceProvidersEv@Qt_6 6.6.1
 _ZN19QGeoServiceProvider9setLocaleERK7QLocale@Qt_6 6.6.1
 _ZN19QGeoServiceProviderC1ERK7QStringRK4QMapIS0_8QVariantEb@Qt_6 6.6.1
 _ZN19QGeoServiceProviderC2ERK7QStringRK4QMapIS0_8QVariantEb@Qt_6 6.6.1
 _ZN19QGeoServiceProviderD0Ev@Qt_6 6.6.1
 _ZN19QGeoServiceProviderD1Ev@Qt_6 6.6.1
 _ZN19QGeoServiceProviderD2Ev@Qt_6 6.6.1
 _ZN19QPlaceContactDetail16staticMetaObjectE@Qt_6 6.6.1
 _ZN19QPlaceContactDetail3FaxE@Qt_6 6.6.1
 _ZN19QPlaceContactDetail5EmailE@Qt_6 6.6.1
 _ZN19QPlaceContactDetail5PhoneE@Qt_6 6.6.1
 _ZN19QPlaceContactDetail5clearEv@Qt_6 6.6.1
 _ZN19QPlaceContactDetail7WebsiteE@Qt_6 6.6.1
 _ZN19QPlaceContactDetail8setLabelERK7QString@Qt_6 6.6.1
 _ZN19QPlaceContactDetail8setValueERK7QString@Qt_6 6.6.1
 _ZN19QPlaceContactDetailC1ERKS_@Qt_6 6.6.1
 _ZN19QPlaceContactDetailC1Ev@Qt_6 6.6.1
 _ZN19QPlaceContactDetailC2ERKS_@Qt_6 6.6.1
 _ZN19QPlaceContactDetailC2Ev@Qt_6 6.6.1
 _ZN19QPlaceContactDetailD1Ev@Qt_6 6.6.1
 _ZN19QPlaceContactDetailD2Ev@Qt_6 6.6.1
 _ZN19QPlaceContactDetailaSERKS_@Qt_6 6.6.1
 _ZN19QPlaceManagerEngine10placeAddedERK7QString@Qt_6 6.6.1
 _ZN19QPlaceManagerEngine10setLocalesERK5QListI7QLocaleE@Qt_6 6.6.1
 _ZN19QPlaceManagerEngine11dataChangedEv@Qt_6 6.6.1
 _ZN19QPlaceManagerEngine11qt_metacallEN11QMetaObject4CallEiPPv@Qt_6 6.6.1
 _ZN19QPlaceManagerEngine11qt_metacastEPKc@Qt_6 6.6.1
 _ZN19QPlaceManagerEngine11removePlaceERK7QString@Qt_6 6.6.1
 _ZN19QPlaceManagerEngine12placeRemovedERK7QString@Qt_6 6.6.1
 _ZN19QPlaceManagerEngine12placeUpdatedERK7QString@Qt_6 6.6.1
 _ZN19QPlaceManagerEngine12saveCategoryERK14QPlaceCategoryRK7QString@Qt_6 6.6.1
 _ZN19QPlaceManagerEngine13categoryAddedERK14QPlaceCategoryRK7QString@Qt_6 6.6.1
 _ZN19QPlaceManagerEngine13errorOccurredEP11QPlaceReplyNS0_5ErrorERK7QString@Qt_6 6.6.1
 _ZN19QPlaceManagerEngine14matchingPlacesERK18QPlaceMatchRequest@Qt_6 6.6.1
 _ZN19QPlaceManagerEngine14removeCategoryERK7QString@Qt_6 6.6.1
 _ZN19QPlaceManagerEngine14setManagerNameERK7QString@Qt_6 6.6.1
 _ZN19QPlaceManagerEngine15categoryRemovedERK7QStringS2_@Qt_6 6.6.1
 _ZN19QPlaceManagerEngine15categoryUpdatedERK14QPlaceCategoryRK7QString@Qt_6 6.6.1
 _ZN19QPlaceManagerEngine15getPlaceContentERK20QPlaceContentRequest@Qt_6 6.6.1
 _ZN19QPlaceManagerEngine15getPlaceDetailsERK7QString@Qt_6 6.6.1
 _ZN19QPlaceManagerEngine16staticMetaObjectE@Qt_6 6.6.1
 _ZN19QPlaceManagerEngine17searchSuggestionsERK19QPlaceSearchRequest@Qt_6 6.6.1
 _ZN19QPlaceManagerEngine17setManagerVersionEi@Qt_6 6.6.1
 _ZN19QPlaceManagerEngine20initializeCategoriesEv@Qt_6 6.6.1
 _ZN19QPlaceManagerEngine6searchERK19QPlaceSearchRequest@Qt_6 6.6.1
 _ZN19QPlaceManagerEngine8finishedEP11QPlaceReply@Qt_6 6.6.1
 _ZN19QPlaceManagerEngine9savePlaceERK6QPlace@Qt_6 6.6.1
 _ZN19QPlaceManagerEngineC1ERK4QMapI7QString8QVariantEP7QObject@Qt_6 6.6.1
 _ZN19QPlaceManagerEngineC2ERK4QMapI7QString8QVariantEP7QObject@Qt_6 6.6.1
 _ZN19QPlaceManagerEngineD0Ev@Qt_6 6.6.1
 _ZN19QPlaceManagerEngineD1Ev@Qt_6 6.6.1
 _ZN19QPlaceManagerEngineD2Ev@Qt_6 6.6.1
 _ZN19QPlaceSearchRequest11setCategoryERK14QPlaceCategory@Qt_6 6.6.1
 _ZN19QPlaceSearchRequest13setCategoriesERK5QListI14QPlaceCategoryE@Qt_6 6.6.1
 _ZN19QPlaceSearchRequest13setSearchAreaERK9QGeoShape@Qt_6 6.6.1
 _ZN19QPlaceSearchRequest13setSearchTermERK7QString@Qt_6 6.6.1
 _ZN19QPlaceSearchRequest16setRelevanceHintENS_13RelevanceHintE@Qt_6 6.6.1
 _ZN19QPlaceSearchRequest16setSearchContextERK8QVariant@Qt_6 6.6.1
 _ZN19QPlaceSearchRequest18setVisibilityScopeE6QFlagsIN9QLocation10VisibilityEE@Qt_6 6.6.1
 _ZN19QPlaceSearchRequest19setRecommendationIdERK7QString@Qt_6 6.6.1
 _ZN19QPlaceSearchRequest5clearEv@Qt_6 6.6.1
 _ZN19QPlaceSearchRequest8setLimitEi@Qt_6 6.6.1
 _ZN19QPlaceSearchRequestC1ERKS_@Qt_6 6.6.1
 _ZN19QPlaceSearchRequestC1Ev@Qt_6 6.6.1
 _ZN19QPlaceSearchRequestC2ERKS_@Qt_6 6.6.1
 _ZN19QPlaceSearchRequestC2Ev@Qt_6 6.6.1
 _ZN19QPlaceSearchRequestD1Ev@Qt_6 6.6.1
 _ZN19QPlaceSearchRequestD2Ev@Qt_6 6.6.1
 _ZN19QPlaceSearchRequestaSERKS_@Qt_6 6.6.1
 _ZN20QPlaceContentRequest10setPlaceIdERK7QString@Qt_6 6.6.1
 _ZN20QPlaceContentRequest14setContentTypeEN13QPlaceContent4TypeE@Qt_6 6.6.1
 _ZN20QPlaceContentRequest17setContentContextERK8QVariant@Qt_6 6.6.1
 _ZN20QPlaceContentRequest5clearEv@Qt_6 6.6.1
 _ZN20QPlaceContentRequest8setLimitEi@Qt_6 6.6.1
 _ZN20QPlaceContentRequestC1ERKS_@Qt_6 6.6.1
 _ZN20QPlaceContentRequestC1Ev@Qt_6 6.6.1
 _ZN20QPlaceContentRequestC2ERKS_@Qt_6 6.6.1
 _ZN20QPlaceContentRequestC2Ev@Qt_6 6.6.1
 _ZN20QPlaceContentRequestD1Ev@Qt_6 6.6.1
 _ZN20QPlaceContentRequestD2Ev@Qt_6 6.6.1
 _ZN20QPlaceContentRequestaSERKS_@Qt_6 6.6.1
 _ZN23QGeoCodingManagerEngine11qt_metacallEN11QMetaObject4CallEiPPv@Qt_6 6.6.1
 _ZN23QGeoCodingManagerEngine11qt_metacastEPKc@Qt_6 6.6.1
 _ZN23QGeoCodingManagerEngine13errorOccurredEP13QGeoCodeReplyNS0_5ErrorERK7QString@Qt_6 6.6.1
 _ZN23QGeoCodingManagerEngine14reverseGeocodeERK14QGeoCoordinateRK9QGeoShape@Qt_6 6.6.1
 _ZN23QGeoCodingManagerEngine14setManagerNameERK7QString@Qt_6 6.6.1
 _ZN23QGeoCodingManagerEngine16staticMetaObjectE@Qt_6 6.6.1
 _ZN23QGeoCodingManagerEngine17setManagerVersionEi@Qt_6 6.6.1
 _ZN23QGeoCodingManagerEngine7geocodeERK11QGeoAddressRK9QGeoShape@Qt_6 6.6.1
 _ZN23QGeoCodingManagerEngine7geocodeERK7QStringiiRK9QGeoShape@Qt_6 6.6.1
 _ZN23QGeoCodingManagerEngine8finishedEP13QGeoCodeReply@Qt_6 6.6.1
 _ZN23QGeoCodingManagerEngine9setLocaleERK7QLocale@Qt_6 6.6.1
 _ZN23QGeoCodingManagerEngineC1ERK4QMapI7QString8QVariantEP7QObject@Qt_6 6.6.1
 _ZN23QGeoCodingManagerEngineC2ERK4QMapI7QString8QVariantEP7QObject@Qt_6 6.6.1
 _ZN23QGeoCodingManagerEngineD0Ev@Qt_6 6.6.1
 _ZN23QGeoCodingManagerEngineD1Ev@Qt_6 6.6.1
 _ZN23QGeoCodingManagerEngineD2Ev@Qt_6 6.6.1
 _ZN24QGeoRoutingManagerEngine11qt_metacallEN11QMetaObject4CallEiPPv@Qt_6 6.6.1
 _ZN24QGeoRoutingManagerEngine11qt_metacastEPKc@Qt_6 6.6.1
 _ZN24QGeoRoutingManagerEngine11updateRouteERK9QGeoRouteRK14QGeoCoordinate@Qt_6 6.6.1
 _ZN24QGeoRoutingManagerEngine13errorOccurredEP14QGeoRouteReplyNS0_5ErrorERK7QString@Qt_6 6.6.1
 _ZN24QGeoRoutingManagerEngine14setManagerNameERK7QString@Qt_6 6.6.1
 _ZN24QGeoRoutingManagerEngine16staticMetaObjectE@Qt_6 6.6.1
 _ZN24QGeoRoutingManagerEngine17setManagerVersionEi@Qt_6 6.6.1
 _ZN24QGeoRoutingManagerEngine20setMeasurementSystemEN7QLocale17MeasurementSystemE@Qt_6 6.6.1
 _ZN24QGeoRoutingManagerEngine23setSupportedTravelModesE6QFlagsIN16QGeoRouteRequest10TravelModeEE@Qt_6 6.6.1
 _ZN24QGeoRoutingManagerEngine24setSupportedFeatureTypesE6QFlagsIN16QGeoRouteRequest11FeatureTypeEE@Qt_6 6.6.1
 _ZN24QGeoRoutingManagerEngine26setSupportedFeatureWeightsE6QFlagsIN16QGeoRouteRequest13FeatureWeightEE@Qt_6 6.6.1
 _ZN24QGeoRoutingManagerEngine26setSupportedSegmentDetailsE6QFlagsIN16QGeoRouteRequest13SegmentDetailEE@Qt_6 6.6.1
 _ZN24QGeoRoutingManagerEngine27setSupportedManeuverDetailsE6QFlagsIN16QGeoRouteRequest14ManeuverDetailEE@Qt_6 6.6.1
 _ZN24QGeoRoutingManagerEngine30setSupportedRouteOptimizationsE6QFlagsIN16QGeoRouteRequest17RouteOptimizationEE@Qt_6 6.6.1
 _ZN24QGeoRoutingManagerEngine8finishedEP14QGeoRouteReply@Qt_6 6.6.1
 _ZN24QGeoRoutingManagerEngine9setLocaleERK7QLocale@Qt_6 6.6.1
 _ZN24QGeoRoutingManagerEngineC1ERK4QMapI7QString8QVariantEP7QObject@Qt_6 6.6.1
 _ZN24QGeoRoutingManagerEngineC2ERK4QMapI7QString8QVariantEP7QObject@Qt_6 6.6.1
 _ZN24QGeoRoutingManagerEngineD0Ev@Qt_6 6.6.1
 _ZN24QGeoRoutingManagerEngineD1Ev@Qt_6 6.6.1
 _ZN24QGeoRoutingManagerEngineD2Ev@Qt_6 6.6.1
 _ZN26QGeoServiceProviderFactory12setQmlEngineEP10QQmlEngine@Qt_6 6.6.1
 _ZN26QPlaceProposedSearchResult16setSearchRequestERK19QPlaceSearchRequest@Qt_6 6.6.1
 _ZN26QPlaceProposedSearchResultC1ERK18QPlaceSearchResult@Qt_6 6.6.1
 _ZN26QPlaceProposedSearchResultC1Ev@Qt_6 6.6.1
 _ZN26QPlaceProposedSearchResultC2ERK18QPlaceSearchResult@Qt_6 6.6.1
 _ZN26QPlaceProposedSearchResultC2Ev@Qt_6 6.6.1
 _ZN26QPlaceProposedSearchResultD0Ev@Qt_6 6.6.1
 _ZN26QPlaceProposedSearchResultD1Ev@Qt_6 6.6.1
 _ZN26QPlaceProposedSearchResultD2Ev@Qt_6 6.6.1
 _ZN27QPlaceSearchSuggestionReply11qt_metacallEN11QMetaObject4CallEiPPv@Qt_6 6.6.1
 _ZN27QPlaceSearchSuggestionReply11qt_metacastEPKc@Qt_6 6.6.1
 _ZN27QPlaceSearchSuggestionReply14setSuggestionsERK5QListI7QStringE@Qt_6 6.6.1
 _ZN27QPlaceSearchSuggestionReply16staticMetaObjectE@Qt_6 6.6.1
 _ZN27QPlaceSearchSuggestionReplyC1EP7QObject@Qt_6 6.6.1
 _ZN27QPlaceSearchSuggestionReplyC2EP7QObject@Qt_6 6.6.1
 _ZN27QPlaceSearchSuggestionReplyD0Ev@Qt_6 6.6.1
 _ZN27QPlaceSearchSuggestionReplyD1Ev@Qt_6 6.6.1
 _ZN27QPlaceSearchSuggestionReplyD2Ev@Qt_6 6.6.1
 (optional=templinst)_ZN28QExplicitlySharedDataPointerI16QGeoRoutePrivateED1Ev@Qt_6 6.8.2
 (optional=templinst)_ZN28QExplicitlySharedDataPointerI16QGeoRoutePrivateED2Ev@Qt_6 6.8.2
 (optional=templinst)_ZN28QExplicitlySharedDataPointerI20QPlaceContentPrivateED1Ev@Qt_6 6.8.2
 (optional=templinst)_ZN28QExplicitlySharedDataPointerI20QPlaceContentPrivateED2Ev@Qt_6 6.8.2
 (optional=templinst)_ZN28QExplicitlySharedDataPointerI23QGeoRouteRequestPrivateED1Ev@Qt_6 6.8.2
 (optional=templinst)_ZN28QExplicitlySharedDataPointerI23QGeoRouteRequestPrivateED2Ev@Qt_6 6.8.2
 (optional=templinst)_ZN28QExplicitlySharedDataPointerI23QGeoRouteSegmentPrivateED1Ev@Qt_6 6.8.2
 (optional=templinst)_ZN28QExplicitlySharedDataPointerI23QGeoRouteSegmentPrivateED2Ev@Qt_6 6.8.2
 _ZN6QPlace10setContentEN13QPlaceContent4TypeERK4QMapIiS0_E@Qt_6 6.6.1
 _ZN6QPlace10setPlaceIdERK7QString@Qt_6 6.6.1
 _ZN6QPlace10setRatingsERK13QPlaceRatings@Qt_6 6.6.1
 _ZN6QPlace11setCategoryERK14QPlaceCategory@Qt_6 6.6.1
 _ZN6QPlace11setLocationERK12QGeoLocation@Qt_6 6.6.1
 _ZN6QPlace11setSupplierERK14QPlaceSupplier@Qt_6 6.6.1
 _ZN6QPlace13insertContentEN13QPlaceContent4TypeERK4QMapIiS0_E@Qt_6 6.6.1
 _ZN6QPlace13setCategoriesERK5QListI14QPlaceCategoryE@Qt_6 6.6.1
 _ZN6QPlace13setVisibilityEN9QLocation10VisibilityE@Qt_6 6.6.1
 _ZN6QPlace14setAttributionERK7QString@Qt_6 6.6.1
 _ZN6QPlace17setContactDetailsERK7QString5QListI19QPlaceContactDetailE@Qt_6 6.6.1
 _ZN6QPlace17setDetailsFetchedEb@Qt_6 6.6.1
 _ZN6QPlace19appendContactDetailERK7QStringRK19QPlaceContactDetail@Qt_6 6.6.1
 _ZN6QPlace20removeContactDetailsERK7QString@Qt_6 6.6.1
 _ZN6QPlace20setExtendedAttributeERK7QStringRK15QPlaceAttribute@Qt_6 6.6.1
 _ZN6QPlace20setTotalContentCountEN13QPlaceContent4TypeEi@Qt_6 6.6.1
 _ZN6QPlace23removeExtendedAttributeERK7QString@Qt_6 6.6.1
 _ZN6QPlace7setIconERK10QPlaceIcon@Qt_6 6.6.1
 _ZN6QPlace7setNameERK7QString@Qt_6 6.6.1
 _ZN6QPlaceC1ERKS_@Qt_6 6.6.1
 _ZN6QPlaceC1Ev@Qt_6 6.6.1
 _ZN6QPlaceC2ERKS_@Qt_6 6.6.1
 _ZN6QPlaceC2Ev@Qt_6 6.6.1
 _ZN6QPlaceD1Ev@Qt_6 6.6.1
 _ZN6QPlaceD2Ev@Qt_6 6.6.1
 _ZN6QPlaceaSERKS_@Qt_6 6.6.1
 _ZN8QGeoJson13exportGeoJsonERK5QListI8QVariantE@Qt_6 6.6.1
 _ZN8QGeoJson13importGeoJsonERK13QJsonDocument@Qt_6 6.6.1
 _ZN8QGeoJson8toStringERK5QListI8QVariantE@Qt_6 6.6.1
 _ZN9QGeoRoute10setRequestERK16QGeoRouteRequest@Qt_6 6.6.1
 _ZN9QGeoRoute10setRouteIdERK7QString@Qt_6 6.6.1
 _ZN9QGeoRoute11setDistanceEd@Qt_6 6.6.1
 _ZN9QGeoRoute11setLegIndexEi@Qt_6 6.6.1
 _ZN9QGeoRoute12setRouteLegsERK5QListIS_E@Qt_6 6.6.1
 _ZN9QGeoRoute13setTravelModeEN16QGeoRouteRequest10TravelModeE@Qt_6 6.6.1
 _ZN9QGeoRoute13setTravelTimeEi@Qt_6 6.6.1
 _ZN9QGeoRoute15setOverallRouteERKS_@Qt_6 6.6.1
 _ZN9QGeoRoute16staticMetaObjectE@Qt_6 6.6.1
 _ZN9QGeoRoute1dEv@Qt_6 6.6.1
 _ZN9QGeoRoute20setFirstRouteSegmentERK16QGeoRouteSegment@Qt_6 6.6.1
 _ZN9QGeoRoute21setExtendedAttributesERK4QMapI7QString8QVariantE@Qt_6 6.6.1
 _ZN9QGeoRoute7setPathERK5QListI14QGeoCoordinateE@Qt_6 6.6.1
 _ZN9QGeoRoute9setBoundsERK13QGeoRectangle@Qt_6 6.6.1
 _ZN9QGeoRouteC1ERKS_@Qt_6 6.6.1
 _ZN9QGeoRouteC1Ev@Qt_6 6.6.1
 _ZN9QGeoRouteC2ERKS_@Qt_6 6.6.1
 _ZN9QGeoRouteC2Ev@Qt_6 6.6.1
 _ZN9QGeoRouteD1Ev@Qt_6 6.6.1
 _ZN9QGeoRouteD2Ev@Qt_6 6.6.1
 _ZN9QGeoRouteaSERKS_@Qt_6 6.6.1
 _ZN9QLocation16staticMetaObjectE@Qt_6 6.6.1
 _ZNK10QPlaceIcon10parametersEv@Qt_6 6.6.1
 _ZNK10QPlaceIcon3urlERK5QSize@Qt_6 6.6.1
 _ZNK10QPlaceIcon7isEmptyEv@Qt_6 6.6.1
 _ZNK10QPlaceIcon7isEqualERKS_@Qt_6 6.6.1
 _ZNK10QPlaceIcon7managerEv@Qt_6 6.6.1
 _ZNK10QPlaceUser4nameEv@Qt_6 6.6.1
 _ZNK10QPlaceUser6userIdEv@Qt_6 6.6.1
 _ZNK10QPlaceUser7isEqualERKS_@Qt_6 6.6.1
 _ZNK11QPlaceReply10isFinishedEv@Qt_6 6.6.1
 _ZNK11QPlaceReply10metaObjectEv@Qt_6 6.6.1
 _ZNK11QPlaceReply11errorStringEv@Qt_6 6.6.1
 _ZNK11QPlaceReply4typeEv@Qt_6 6.6.1
 _ZNK11QPlaceReply5errorEv@Qt_6 6.6.1
 _ZNK12QGeoManeuver15instructionTextEv@Qt_6 6.6.1
 _ZNK12QGeoManeuver18extendedAttributesEv@Qt_6 6.6.1
 _ZNK12QGeoManeuver21timeToNextInstructionEv@Qt_6 6.6.1
 _ZNK12QGeoManeuver25distanceToNextInstructionEv@Qt_6 6.6.1
 _ZNK12QGeoManeuver7isEqualERKS_@Qt_6 6.6.1
 _ZNK12QGeoManeuver7isValidEv@Qt_6 6.6.1
 _ZNK12QGeoManeuver8positionEv@Qt_6 6.6.1
 _ZNK12QGeoManeuver8waypointEv@Qt_6 6.6.1
 _ZNK12QGeoManeuver9directionEv@Qt_6 6.6.1
 _ZNK12QPlaceResult11isSponsoredEv@Qt_6 6.6.1
 _ZNK12QPlaceResult5placeEv@Qt_6 6.6.1
 _ZNK12QPlaceResult8distanceEv@Qt_6 6.6.1
 _ZNK13QGeoCodeReply10isFinishedEv@Qt_6 6.6.1
 _ZNK13QGeoCodeReply10metaObjectEv@Qt_6 6.6.1
 _ZNK13QGeoCodeReply11errorStringEv@Qt_6 6.6.1
 _ZNK13QGeoCodeReply5errorEv@Qt_6 6.6.1
 _ZNK13QGeoCodeReply5limitEv@Qt_6 6.6.1
 _ZNK13QGeoCodeReply6offsetEv@Qt_6 6.6.1
 _ZNK13QGeoCodeReply8viewportEv@Qt_6 6.6.1
 _ZNK13QGeoCodeReply9locationsEv@Qt_6 6.6.1
 _ZNK13QPlaceContent4typeEv@Qt_6 6.6.1
 _ZNK13QPlaceContent5valueENS_7DataTagE@Qt_6 6.6.1
 _ZNK13QPlaceContent8dataTagsEv@Qt_6 6.6.1
 _ZNK13QPlaceContenteqERKS_@Qt_6 6.6.1
 _ZNK13QPlaceContentneERKS_@Qt_6 6.6.1
 _ZNK13QPlaceIdReply10metaObjectEv@Qt_6 6.6.1
 _ZNK13QPlaceIdReply13operationTypeEv@Qt_6 6.6.1
 _ZNK13QPlaceIdReply2idEv@Qt_6 6.6.1
 _ZNK13QPlaceIdReply4typeEv@Qt_6 6.6.1
 _ZNK13QPlaceManager10metaObjectEv@Qt_6 6.6.1
 _ZNK13QPlaceManager11managerNameEv@Qt_6 6.6.1
 _ZNK13QPlaceManager14managerVersionEv@Qt_6 6.6.1
 _ZNK13QPlaceManager14matchingPlacesERK18QPlaceMatchRequest@Qt_6 6.6.1
 _ZNK13QPlaceManager15childCategoriesERK7QString@Qt_6 6.6.1
 _ZNK13QPlaceManager15compatiblePlaceERK6QPlace@Qt_6 6.6.1
 _ZNK13QPlaceManager15getPlaceContentERK20QPlaceContentRequest@Qt_6 6.6.1
 _ZNK13QPlaceManager15getPlaceDetailsERK7QString@Qt_6 6.6.1
 _ZNK13QPlaceManager16childCategoryIdsERK7QString@Qt_6 6.6.1
 _ZNK13QPlaceManager16parentCategoryIdERK7QString@Qt_6 6.6.1
 _ZNK13QPlaceManager17searchSuggestionsERK19QPlaceSearchRequest@Qt_6 6.6.1
 _ZNK13QPlaceManager6searchERK19QPlaceSearchRequest@Qt_6 6.6.1
 _ZNK13QPlaceManager7localesEv@Qt_6 6.6.1
 _ZNK13QPlaceManager8categoryERK7QString@Qt_6 6.6.1
 _ZNK13QPlaceRatings5countEv@Qt_6 6.6.1
 _ZNK13QPlaceRatings7averageEv@Qt_6 6.6.1
 _ZNK13QPlaceRatings7isEmptyEv@Qt_6 6.6.1
 _ZNK13QPlaceRatings7isEqualERKS_@Qt_6 6.6.1
 _ZNK13QPlaceRatings7maximumEv@Qt_6 6.6.1
 _ZNK14QGeoRouteReply10isFinishedEv@Qt_6 6.6.1
 _ZNK14QGeoRouteReply10metaObjectEv@Qt_6 6.6.1
 _ZNK14QGeoRouteReply11errorStringEv@Qt_6 6.6.1
 _ZNK14QGeoRouteReply5errorEv@Qt_6 6.6.1
 _ZNK14QGeoRouteReply6routesEv@Qt_6 6.6.1
 _ZNK14QGeoRouteReply7requestEv@Qt_6 6.6.1
 _ZNK14QPlaceCategory10categoryIdEv@Qt_6 6.6.1
 _ZNK14QPlaceCategory10visibilityEv@Qt_6 6.6.1
 _ZNK14QPlaceCategory4iconEv@Qt_6 6.6.1
 _ZNK14QPlaceCategory4nameEv@Qt_6 6.6.1
 _ZNK14QPlaceCategory7isEmptyEv@Qt_6 6.6.1
 _ZNK14QPlaceCategory7isEqualERKS_@Qt_6 6.6.1
 _ZNK14QPlaceSupplier10supplierIdEv@Qt_6 6.6.1
 _ZNK14QPlaceSupplier3urlEv@Qt_6 6.6.1
 _ZNK14QPlaceSupplier4iconEv@Qt_6 6.6.1
 _ZNK14QPlaceSupplier4nameEv@Qt_6 6.6.1
 _ZNK14QPlaceSupplier7isEmptyEv@Qt_6 6.6.1
 _ZNK14QPlaceSupplier7isEqualERKS_@Qt_6 6.6.1
 _ZNK15QPlaceAttribute4textEv@Qt_6 6.6.1
 _ZNK15QPlaceAttribute5labelEv@Qt_6 6.6.1
 _ZNK15QPlaceAttribute7isEmptyEv@Qt_6 6.6.1
 _ZNK15QPlaceAttribute7isEqualERKS_@Qt_6 6.6.1
 _ZNK16QGeoRouteRequest11travelModesEv@Qt_6 6.6.1
 _ZNK16QGeoRouteRequest12excludeAreasEv@Qt_6 6.6.1
 _ZNK16QGeoRouteRequest12featureTypesEv@Qt_6 6.6.1
 _ZNK16QGeoRouteRequest13departureTimeEv@Qt_6 6.6.1
 _ZNK16QGeoRouteRequest13featureWeightENS_11FeatureTypeE@Qt_6 6.6.1
 _ZNK16QGeoRouteRequest13segmentDetailEv@Qt_6 6.6.1
 _ZNK16QGeoRouteRequest14maneuverDetailEv@Qt_6 6.6.1
 _ZNK16QGeoRouteRequest17routeOptimizationEv@Qt_6 6.6.1
 _ZNK16QGeoRouteRequest23numberAlternativeRoutesEv@Qt_6 6.6.1
 _ZNK16QGeoRouteRequest7isEqualERKS_@Qt_6 6.6.1
 _ZNK16QGeoRouteRequest9waypointsEv@Qt_6 6.6.1
 _ZNK16QGeoRouteSegment10travelTimeEv@Qt_6 6.6.1
 _ZNK16QGeoRouteSegment16isLegLastSegmentEv@Qt_6 6.6.1
 _ZNK16QGeoRouteSegment16nextRouteSegmentEv@Qt_6 6.6.1
 _ZNK16QGeoRouteSegment4pathEv@Qt_6 6.6.1
 _ZNK16QGeoRouteSegment7isEqualERKS_@Qt_6 6.6.1
 _ZNK16QGeoRouteSegment7isValidEv@Qt_6 6.6.1
 _ZNK16QGeoRouteSegment8distanceEv@Qt_6 6.6.1
 _ZNK16QGeoRouteSegment8maneuverEv@Qt_6 6.6.1
 _ZNK16QPlaceMatchReply10metaObjectEv@Qt_6 6.6.1
 _ZNK16QPlaceMatchReply4typeEv@Qt_6 6.6.1
 _ZNK16QPlaceMatchReply6placesEv@Qt_6 6.6.1
 _ZNK16QPlaceMatchReply7requestEv@Qt_6 6.6.1
 _ZNK17QGeoCodingManager10metaObjectEv@Qt_6 6.6.1
 _ZNK17QGeoCodingManager11managerNameEv@Qt_6 6.6.1
 _ZNK17QGeoCodingManager14managerVersionEv@Qt_6 6.6.1
 _ZNK17QGeoCodingManager6localeEv@Qt_6 6.6.1
 _ZNK17QPlaceSearchReply10metaObjectEv@Qt_6 6.6.1
 _ZNK17QPlaceSearchReply15nextPageRequestEv@Qt_6 6.6.1
 _ZNK17QPlaceSearchReply19previousPageRequestEv@Qt_6 6.6.1
 _ZNK17QPlaceSearchReply4typeEv@Qt_6 6.6.1
 _ZNK17QPlaceSearchReply7requestEv@Qt_6 6.6.1
 _ZNK17QPlaceSearchReply7resultsEv@Qt_6 6.6.1
 _ZNK18QGeoRoutingManager10metaObjectEv@Qt_6 6.6.1
 _ZNK18QGeoRoutingManager11managerNameEv@Qt_6 6.6.1
 _ZNK18QGeoRoutingManager14managerVersionEv@Qt_6 6.6.1
 _ZNK18QGeoRoutingManager17measurementSystemEv@Qt_6 6.6.1
 _ZNK18QGeoRoutingManager20supportedTravelModesEv@Qt_6 6.6.1
 _ZNK18QGeoRoutingManager21supportedFeatureTypesEv@Qt_6 6.6.1
 _ZNK18QGeoRoutingManager23supportedFeatureWeightsEv@Qt_6 6.6.1
 _ZNK18QGeoRoutingManager23supportedSegmentDetailsEv@Qt_6 6.6.1
 _ZNK18QGeoRoutingManager24supportedManeuverDetailsEv@Qt_6 6.6.1
 _ZNK18QGeoRoutingManager27supportedRouteOptimizationsEv@Qt_6 6.6.1
 _ZNK18QGeoRoutingManager6localeEv@Qt_6 6.6.1
 _ZNK18QPlaceContentReply10metaObjectEv@Qt_6 6.6.1
 _ZNK18QPlaceContentReply10totalCountEv@Qt_6 6.6.1
 _ZNK18QPlaceContentReply15nextPageRequestEv@Qt_6 6.6.1
 _ZNK18QPlaceContentReply19previousPageRequestEv@Qt_6 6.6.1
 _ZNK18QPlaceContentReply4typeEv@Qt_6 6.6.1
 _ZNK18QPlaceContentReply7contentEv@Qt_6 6.6.1
 _ZNK18QPlaceContentReply7requestEv@Qt_6 6.6.1
 _ZNK18QPlaceDetailsReply10metaObjectEv@Qt_6 6.6.1
 _ZNK18QPlaceDetailsReply4typeEv@Qt_6 6.6.1
 _ZNK18QPlaceDetailsReply5placeEv@Qt_6 6.6.1
 _ZNK18QPlaceMatchRequest10parametersEv@Qt_6 6.6.1
 _ZNK18QPlaceMatchRequest6placesEv@Qt_6 6.6.1
 _ZNK18QPlaceMatchRequest7isEqualERKS_@Qt_6 6.6.1
 _ZNK18QPlaceSearchResult4iconEv@Qt_6 6.6.1
 _ZNK18QPlaceSearchResult4typeEv@Qt_6 6.6.1
 _ZNK18QPlaceSearchResult5titleEv@Qt_6 6.6.1
 _ZNK18QPlaceSearchResulteqERKS_@Qt_6 6.6.1
 _ZNK19QGeoServiceProvider10metaObjectEv@Qt_6 6.6.1
 _ZNK19QGeoServiceProvider11errorStringEv@Qt_6 6.6.1
 _ZNK19QGeoServiceProvider11placesErrorEv@Qt_6 6.6.1
 _ZNK19QGeoServiceProvider12mappingErrorEv@Qt_6 6.6.1
 _ZNK19QGeoServiceProvider12placeManagerEv@Qt_6 6.6.1
 _ZNK19QGeoServiceProvider12routingErrorEv@Qt_6 6.6.1
 _ZNK19QGeoServiceProvider14geocodingErrorEv@Qt_6 6.6.1
 _ZNK19QGeoServiceProvider14mappingManagerEv@Qt_6 6.6.1
 _ZNK19QGeoServiceProvider14placesFeaturesEv@Qt_6 6.6.1
 _ZNK19QGeoServiceProvider14routingManagerEv@Qt_6 6.6.1
 _ZNK19QGeoServiceProvider15mappingFeaturesEv@Qt_6 6.6.1
 _ZNK19QGeoServiceProvider15navigationErrorEv@Qt_6 6.6.1
 _ZNK19QGeoServiceProvider15routingFeaturesEv@Qt_6 6.6.1
 _ZNK19QGeoServiceProvider16geocodingManagerEv@Qt_6 6.6.1
 _ZNK19QGeoServiceProvider17geocodingFeaturesEv@Qt_6 6.6.1
 _ZNK19QGeoServiceProvider17placesErrorStringEv@Qt_6 6.6.1
 _ZNK19QGeoServiceProvider18mappingErrorStringEv@Qt_6 6.6.1
 _ZNK19QGeoServiceProvider18navigationFeaturesEv@Qt_6 6.6.1
 _ZNK19QGeoServiceProvider18routingErrorStringEv@Qt_6 6.6.1
 _ZNK19QGeoServiceProvider20geocodingErrorStringEv@Qt_6 6.6.1
 _ZNK19QGeoServiceProvider21navigationErrorStringEv@Qt_6 6.6.1
 _ZNK19QGeoServiceProvider5errorEv@Qt_6 6.6.1
 _ZNK19QPlaceContactDetail5labelEv@Qt_6 6.6.1
 _ZNK19QPlaceContactDetail5valueEv@Qt_6 6.6.1
 _ZNK19QPlaceContactDetail7isEqualERKS_@Qt_6 6.6.1
 _ZNK19QPlaceManagerEngine10metaObjectEv@Qt_6 6.6.1
 _ZNK19QPlaceManagerEngine11managerNameEv@Qt_6 6.6.1
 _ZNK19QPlaceManagerEngine14managerVersionEv@Qt_6 6.6.1
 _ZNK19QPlaceManagerEngine15childCategoriesERK7QString@Qt_6 6.6.1
 _ZNK19QPlaceManagerEngine15compatiblePlaceERK6QPlace@Qt_6 6.6.1
 _ZNK19QPlaceManagerEngine16childCategoryIdsERK7QString@Qt_6 6.6.1
 _ZNK19QPlaceManagerEngine16constructIconUrlERK10QPlaceIconRK5QSize@Qt_6 6.6.1
 _ZNK19QPlaceManagerEngine16parentCategoryIdERK7QString@Qt_6 6.6.1
 _ZNK19QPlaceManagerEngine7localesEv@Qt_6 6.6.1
 _ZNK19QPlaceManagerEngine7managerEv@Qt_6 6.6.1
 _ZNK19QPlaceManagerEngine8categoryERK7QString@Qt_6 6.6.1
 _ZNK19QPlaceSearchRequest10categoriesEv@Qt_6 6.6.1
 _ZNK19QPlaceSearchRequest10searchAreaEv@Qt_6 6.6.1
 _ZNK19QPlaceSearchRequest10searchTermEv@Qt_6 6.6.1
 _ZNK19QPlaceSearchRequest13relevanceHintEv@Qt_6 6.6.1
 _ZNK19QPlaceSearchRequest13searchContextEv@Qt_6 6.6.1
 _ZNK19QPlaceSearchRequest15visibilityScopeEv@Qt_6 6.6.1
 _ZNK19QPlaceSearchRequest16recommendationIdEv@Qt_6 6.6.1
 _ZNK19QPlaceSearchRequest5limitEv@Qt_6 6.6.1
 _ZNK19QPlaceSearchRequest7isEqualERKS_@Qt_6 6.6.1
 _ZNK20QPlaceContentRequest11contentTypeEv@Qt_6 6.6.1
 _ZNK20QPlaceContentRequest14contentContextEv@Qt_6 6.6.1
 _ZNK20QPlaceContentRequest5limitEv@Qt_6 6.6.1
 _ZNK20QPlaceContentRequest7isEqualERKS_@Qt_6 6.6.1
 _ZNK20QPlaceContentRequest7placeIdEv@Qt_6 6.6.1
 _ZNK23QGeoCodingManagerEngine10metaObjectEv@Qt_6 6.6.1
 _ZNK23QGeoCodingManagerEngine11managerNameEv@Qt_6 6.6.1
 _ZNK23QGeoCodingManagerEngine14managerVersionEv@Qt_6 6.6.1
 _ZNK23QGeoCodingManagerEngine6localeEv@Qt_6 6.6.1
 _ZNK24QGeoRoutingManagerEngine10metaObjectEv@Qt_6 6.6.1
 _ZNK24QGeoRoutingManagerEngine11managerNameEv@Qt_6 6.6.1
 _ZNK24QGeoRoutingManagerEngine14managerVersionEv@Qt_6 6.6.1
 _ZNK24QGeoRoutingManagerEngine17measurementSystemEv@Qt_6 6.6.1
 _ZNK24QGeoRoutingManagerEngine20supportedTravelModesEv@Qt_6 6.6.1
 _ZNK24QGeoRoutingManagerEngine21supportedFeatureTypesEv@Qt_6 6.6.1
 _ZNK24QGeoRoutingManagerEngine23supportedFeatureWeightsEv@Qt_6 6.6.1
 _ZNK24QGeoRoutingManagerEngine23supportedSegmentDetailsEv@Qt_6 6.6.1
 _ZNK24QGeoRoutingManagerEngine24supportedManeuverDetailsEv@Qt_6 6.6.1
 _ZNK24QGeoRoutingManagerEngine27supportedRouteOptimizationsEv@Qt_6 6.6.1
 _ZNK24QGeoRoutingManagerEngine6localeEv@Qt_6 6.6.1
 _ZNK26QGeoServiceProviderFactory24createPlaceManagerEngineERK4QMapI7QString8QVariantEPN19QGeoServiceProvider5ErrorEPS1_@Qt_6 6.6.1
 _ZNK26QGeoServiceProviderFactory26createMappingManagerEngineERK4QMapI7QString8QVariantEPN19QGeoServiceProvider5ErrorEPS1_@Qt_6 6.6.1
 _ZNK26QGeoServiceProviderFactory26createRoutingManagerEngineERK4QMapI7QString8QVariantEPN19QGeoServiceProvider5ErrorEPS1_@Qt_6 6.6.1
 _ZNK26QGeoServiceProviderFactory28createGeocodingManagerEngineERK4QMapI7QString8QVariantEPN19QGeoServiceProvider5ErrorEPS1_@Qt_6 6.6.1
 _ZNK26QPlaceProposedSearchResult13searchRequestEv@Qt_6 6.6.1
 _ZNK27QPlaceSearchSuggestionReply10metaObjectEv@Qt_6 6.6.1
 _ZNK27QPlaceSearchSuggestionReply11suggestionsEv@Qt_6 6.6.1
 _ZNK27QPlaceSearchSuggestionReply4typeEv@Qt_6 6.6.1
 _ZNK6QPlace10categoriesEv@Qt_6 6.6.1
 _ZNK6QPlace10primaryFaxEv@Qt_6 6.6.1
 _ZNK6QPlace10visibilityEv@Qt_6 6.6.1
 _ZNK6QPlace11attributionEv@Qt_6 6.6.1
 _ZNK6QPlace12contactTypesEv@Qt_6 6.6.1
 _ZNK6QPlace12primaryEmailEv@Qt_6 6.6.1
 _ZNK6QPlace12primaryPhoneEv@Qt_6 6.6.1
 _ZNK6QPlace14contactDetailsERK7QString@Qt_6 6.6.1
 _ZNK6QPlace14detailsFetchedEv@Qt_6 6.6.1
 _ZNK6QPlace14primaryWebsiteEv@Qt_6 6.6.1
 _ZNK6QPlace17extendedAttributeERK7QString@Qt_6 6.6.1
 _ZNK6QPlace17totalContentCountEN13QPlaceContent4TypeE@Qt_6 6.6.1
 _ZNK6QPlace22extendedAttributeTypesEv@Qt_6 6.6.1
 _ZNK6QPlace4iconEv@Qt_6 6.6.1
 _ZNK6QPlace4nameEv@Qt_6 6.6.1
 _ZNK6QPlace7contentEN13QPlaceContent4TypeE@Qt_6 6.6.1
 _ZNK6QPlace7isEmptyEv@Qt_6 6.6.1
 _ZNK6QPlace7isEqualERKS_@Qt_6 6.6.1
 _ZNK6QPlace7placeIdEv@Qt_6 6.6.1
 _ZNK6QPlace7ratingsEv@Qt_6 6.6.1
 _ZNK6QPlace8locationEv@Qt_6 6.6.1
 _ZNK6QPlace8supplierEv@Qt_6 6.6.1
 _ZNK9QGeoRoute10travelModeEv@Qt_6 6.6.1
 _ZNK9QGeoRoute10travelTimeEv@Qt_6 6.6.1
 _ZNK9QGeoRoute12overallRouteEv@Qt_6 6.6.1
 _ZNK9QGeoRoute13segmentsCountEv@Qt_6 6.6.1
 _ZNK9QGeoRoute17firstRouteSegmentEv@Qt_6 6.6.1
 _ZNK9QGeoRoute18extendedAttributesEv@Qt_6 6.6.1
 _ZNK9QGeoRoute4pathEv@Qt_6 6.6.1
 _ZNK9QGeoRoute6boundsEv@Qt_6 6.6.1
 _ZNK9QGeoRoute7const_dEv@Qt_6 6.6.1
 _ZNK9QGeoRoute7isEqualERKS_@Qt_6 6.6.1
 _ZNK9QGeoRoute7requestEv@Qt_6 6.6.1
 _ZNK9QGeoRoute7routeIdEv@Qt_6 6.6.1
 _ZNK9QGeoRoute8distanceEv@Qt_6 6.6.1
 _ZNK9QGeoRoute8legIndexEv@Qt_6 6.6.1
 _ZNK9QGeoRoute8segmentsEv@Qt_6 6.6.1
 _ZNK9QGeoRoute9routeLegsEv@Qt_6 6.6.1
 _ZTI11QPlaceReply@Qt_6 6.6.1
 _ZTI12QPlaceResult@Qt_6 6.6.1
 _ZTI13QGeoCodeReply@Qt_6 6.6.1
 _ZTI13QPlaceIdReply@Qt_6 6.6.1
 _ZTI13QPlaceManager@Qt_6 6.6.1
 _ZTI14QGeoRouteReply@Qt_6 6.6.1
 _ZTI16QPlaceMatchReply@Qt_6 6.6.1
 _ZTI17QGeoCodingManager@Qt_6 6.6.1
 _ZTI17QPlaceSearchReply@Qt_6 6.6.1
 _ZTI18QGeoRoutingManager@Qt_6 6.6.1
 _ZTI18QPlaceContentReply@Qt_6 6.6.1
 _ZTI18QPlaceDetailsReply@Qt_6 6.6.1
 _ZTI18QPlaceSearchResult@Qt_6 6.6.1
 _ZTI19QGeoServiceProvider@Qt_6 6.6.1
 _ZTI19QPlaceManagerEngine@Qt_6 6.6.1
 _ZTI23QGeoCodingManagerEngine@Qt_6 6.6.1
 _ZTI24QGeoRoutingManagerEngine@Qt_6 6.6.1
 _ZTI26QGeoServiceProviderFactory@Qt_6 6.6.1
 _ZTI26QPlaceProposedSearchResult@Qt_6 6.6.1
 _ZTI27QPlaceSearchSuggestionReply@Qt_6 6.6.1
 _ZTIZN9QMetaType17registerConverterI5QListI10QPlaceIconE9QIterableI13QMetaSequenceEN9QtPrivate33QSequentialIterableConvertFunctorIS3_EEEEbT1_EUlPKvPvE_@Qt_6 6.6.1
 _ZTIZN9QMetaType17registerConverterI5QListI10QPlaceUserE9QIterableI13QMetaSequenceEN9QtPrivate33QSequentialIterableConvertFunctorIS3_EEEEbT1_EUlPKvPvE_@Qt_6 6.6.1
 _ZTIZN9QMetaType17registerConverterI5QListI12QGeoManeuverE9QIterableI13QMetaSequenceEN9QtPrivate33QSequentialIterableConvertFunctorIS3_EEEEbT1_EUlPKvPvE_@Qt_6 6.6.1
 _ZTIZN9QMetaType17registerConverterI5QListI13QGeoRectangleE9QIterableI13QMetaSequenceEN9QtPrivate33QSequentialIterableConvertFunctorIS3_EEEEbT1_EUlPKvPvE_@Qt_6 6.6.1
 _ZTIZN9QMetaType17registerConverterI5QListI13QPlaceRatingsE9QIterableI13QMetaSequenceEN9QtPrivate33QSequentialIterableConvertFunctorIS3_EEEEbT1_EUlPKvPvE_@Qt_6 6.6.1
 _ZTIZN9QMetaType17registerConverterI5QListI14QGeoCoordinateE9QIterableI13QMetaSequenceEN9QtPrivate33QSequentialIterableConvertFunctorIS3_EEEEbT1_EUlPKvPvE_@Qt_6 6.6.1
 _ZTIZN9QMetaType17registerConverterI5QListI14QPlaceSupplierE9QIterableI13QMetaSequenceEN9QtPrivate33QSequentialIterableConvertFunctorIS3_EEEEbT1_EUlPKvPvE_@Qt_6 6.6.1
 _ZTIZN9QMetaType17registerConverterI5QListI15QPlaceAttributeE9QIterableI13QMetaSequenceEN9QtPrivate33QSequentialIterableConvertFunctorIS3_EEEEbT1_EUlPKvPvE_@Qt_6 6.6.1
 _ZTIZN9QMetaType17registerConverterI5QListI16QGeoRouteSegmentE9QIterableI13QMetaSequenceEN9QtPrivate33QSequentialIterableConvertFunctorIS3_EEEEbT1_EUlPKvPvE_@Qt_6 6.6.1
 _ZTIZN9QMetaType17registerConverterI5QListI19QPlaceContactDetailE9QIterableI13QMetaSequenceEN9QtPrivate33QSequentialIterableConvertFunctorIS3_EEEEbT1_EUlPKvPvE_@Qt_6 6.6.1
 _ZTIZN9QMetaType17registerConverterI5QListI6QPlaceE9QIterableI13QMetaSequenceEN9QtPrivate33QSequentialIterableConvertFunctorIS3_EEEEbT1_EUlPKvPvE_@Qt_6 6.6.1
 _ZTIZN9QMetaType17registerConverterI5QListI9QGeoRouteE9QIterableI13QMetaSequenceEN9QtPrivate33QSequentialIterableConvertFunctorIS3_EEEEbT1_EUlPKvPvE_@Qt_6 6.6.1
 _ZTIZN9QMetaType17registerConverterI5QListIP10QQuickItemE9QIterableI13QMetaSequenceEN9QtPrivate33QSequentialIterableConvertFunctorIS4_EEEEbT1_EUlPKvPvE_@Qt_6 6.6.1
 _ZTIZN9QMetaType17registerConverterI5QListIP7QObjectE9QIterableI13QMetaSequenceEN9QtPrivate33QSequentialIterableConvertFunctorIS4_EEEEbT1_EUlPKvPvE_@Qt_6 6.6.1
 _ZTIZN9QMetaType17registerConverterI5QListIiE9QIterableI13QMetaSequenceEN9QtPrivate33QSequentialIterableConvertFunctorIS2_EEEEbT1_EUlPKvPvE_@Qt_6 6.6.1
 _ZTIZN9QMetaType19registerMutableViewI5QListI10QPlaceIconE9QIterableI13QMetaSequenceEN9QtPrivate37QSequentialIterableMutableViewFunctorIS3_EEEEbT1_EUlPvSB_E_@Qt_6 6.6.1
 _ZTIZN9QMetaType19registerMutableViewI5QListI10QPlaceUserE9QIterableI13QMetaSequenceEN9QtPrivate37QSequentialIterableMutableViewFunctorIS3_EEEEbT1_EUlPvSB_E_@Qt_6 6.6.1
 _ZTIZN9QMetaType19registerMutableViewI5QListI12QGeoManeuverE9QIterableI13QMetaSequenceEN9QtPrivate37QSequentialIterableMutableViewFunctorIS3_EEEEbT1_EUlPvSB_E_@Qt_6 6.6.1
 _ZTIZN9QMetaType19registerMutableViewI5QListI13QGeoRectangleE9QIterableI13QMetaSequenceEN9QtPrivate37QSequentialIterableMutableViewFunctorIS3_EEEEbT1_EUlPvSB_E_@Qt_6 6.6.1
 _ZTIZN9QMetaType19registerMutableViewI5QListI13QPlaceRatingsE9QIterableI13QMetaSequenceEN9QtPrivate37QSequentialIterableMutableViewFunctorIS3_EEEEbT1_EUlPvSB_E_@Qt_6 6.6.1
 _ZTIZN9QMetaType19registerMutableViewI5QListI14QGeoCoordinateE9QIterableI13QMetaSequenceEN9QtPrivate37QSequentialIterableMutableViewFunctorIS3_EEEEbT1_EUlPvSB_E_@Qt_6 6.6.1
 _ZTIZN9QMetaType19registerMutableViewI5QListI14QPlaceSupplierE9QIterableI13QMetaSequenceEN9QtPrivate37QSequentialIterableMutableViewFunctorIS3_EEEEbT1_EUlPvSB_E_@Qt_6 6.6.1
 _ZTIZN9QMetaType19registerMutableViewI5QListI15QPlaceAttributeE9QIterableI13QMetaSequenceEN9QtPrivate37QSequentialIterableMutableViewFunctorIS3_EEEEbT1_EUlPvSB_E_@Qt_6 6.6.1
 _ZTIZN9QMetaType19registerMutableViewI5QListI16QGeoRouteSegmentE9QIterableI13QMetaSequenceEN9QtPrivate37QSequentialIterableMutableViewFunctorIS3_EEEEbT1_EUlPvSB_E_@Qt_6 6.6.1
 _ZTIZN9QMetaType19registerMutableViewI5QListI19QPlaceContactDetailE9QIterableI13QMetaSequenceEN9QtPrivate37QSequentialIterableMutableViewFunctorIS3_EEEEbT1_EUlPvSB_E_@Qt_6 6.6.1
 _ZTIZN9QMetaType19registerMutableViewI5QListI6QPlaceE9QIterableI13QMetaSequenceEN9QtPrivate37QSequentialIterableMutableViewFunctorIS3_EEEEbT1_EUlPvSB_E_@Qt_6 6.6.1
 _ZTIZN9QMetaType19registerMutableViewI5QListI9QGeoRouteE9QIterableI13QMetaSequenceEN9QtPrivate37QSequentialIterableMutableViewFunctorIS3_EEEEbT1_EUlPvSB_E_@Qt_6 6.6.1
 _ZTIZN9QMetaType19registerMutableViewI5QListIP10QQuickItemE9QIterableI13QMetaSequenceEN9QtPrivate37QSequentialIterableMutableViewFunctorIS4_EEEEbT1_EUlPvSC_E_@Qt_6 6.6.1
 _ZTIZN9QMetaType19registerMutableViewI5QListIP7QObjectE9QIterableI13QMetaSequenceEN9QtPrivate37QSequentialIterableMutableViewFunctorIS4_EEEEbT1_EUlPvSC_E_@Qt_6 6.6.1
 _ZTIZN9QMetaType19registerMutableViewI5QListIiE9QIterableI13QMetaSequenceEN9QtPrivate37QSequentialIterableMutableViewFunctorIS2_EEEEbT1_EUlPvSA_E_@Qt_6 6.6.1
 _ZTS11QPlaceReply@Qt_6 6.6.1
 _ZTS12QPlaceResult@Qt_6 6.6.1
 _ZTS13QGeoCodeReply@Qt_6 6.6.1
 _ZTS13QPlaceIdReply@Qt_6 6.6.1
 _ZTS13QPlaceManager@Qt_6 6.6.1
 _ZTS14QGeoRouteReply@Qt_6 6.6.1
 _ZTS16QPlaceMatchReply@Qt_6 6.6.1
 _ZTS17QGeoCodingManager@Qt_6 6.6.1
 _ZTS17QPlaceSearchReply@Qt_6 6.6.1
 _ZTS18QGeoRoutingManager@Qt_6 6.6.1
 _ZTS18QPlaceContentReply@Qt_6 6.6.1
 _ZTS18QPlaceDetailsReply@Qt_6 6.6.1
 _ZTS18QPlaceSearchResult@Qt_6 6.6.1
 _ZTS19QGeoServiceProvider@Qt_6 6.6.1
 _ZTS19QPlaceManagerEngine@Qt_6 6.6.1
 _ZTS23QGeoCodingManagerEngine@Qt_6 6.6.1
 _ZTS24QGeoRoutingManagerEngine@Qt_6 6.6.1
 _ZTS26QGeoServiceProviderFactory@Qt_6 6.6.1
 _ZTS26QPlaceProposedSearchResult@Qt_6 6.6.1
 _ZTS27QPlaceSearchSuggestionReply@Qt_6 6.6.1
 _ZTSZN9QMetaType17registerConverterI5QListI10QPlaceIconE9QIterableI13QMetaSequenceEN9QtPrivate33QSequentialIterableConvertFunctorIS3_EEEEbT1_EUlPKvPvE_@Qt_6 6.6.1
 _ZTSZN9QMetaType17registerConverterI5QListI10QPlaceUserE9QIterableI13QMetaSequenceEN9QtPrivate33QSequentialIterableConvertFunctorIS3_EEEEbT1_EUlPKvPvE_@Qt_6 6.6.1
 _ZTSZN9QMetaType17registerConverterI5QListI12QGeoManeuverE9QIterableI13QMetaSequenceEN9QtPrivate33QSequentialIterableConvertFunctorIS3_EEEEbT1_EUlPKvPvE_@Qt_6 6.6.1
 _ZTSZN9QMetaType17registerConverterI5QListI13QGeoRectangleE9QIterableI13QMetaSequenceEN9QtPrivate33QSequentialIterableConvertFunctorIS3_EEEEbT1_EUlPKvPvE_@Qt_6 6.6.1
 _ZTSZN9QMetaType17registerConverterI5QListI13QPlaceRatingsE9QIterableI13QMetaSequenceEN9QtPrivate33QSequentialIterableConvertFunctorIS3_EEEEbT1_EUlPKvPvE_@Qt_6 6.6.1
 _ZTSZN9QMetaType17registerConverterI5QListI14QGeoCoordinateE9QIterableI13QMetaSequenceEN9QtPrivate33QSequentialIterableConvertFunctorIS3_EEEEbT1_EUlPKvPvE_@Qt_6 6.6.1
 _ZTSZN9QMetaType17registerConverterI5QListI14QPlaceSupplierE9QIterableI13QMetaSequenceEN9QtPrivate33QSequentialIterableConvertFunctorIS3_EEEEbT1_EUlPKvPvE_@Qt_6 6.6.1
 _ZTSZN9QMetaType17registerConverterI5QListI15QPlaceAttributeE9QIterableI13QMetaSequenceEN9QtPrivate33QSequentialIterableConvertFunctorIS3_EEEEbT1_EUlPKvPvE_@Qt_6 6.6.1
 _ZTSZN9QMetaType17registerConverterI5QListI16QGeoRouteSegmentE9QIterableI13QMetaSequenceEN9QtPrivate33QSequentialIterableConvertFunctorIS3_EEEEbT1_EUlPKvPvE_@Qt_6 6.6.1
 _ZTSZN9QMetaType17registerConverterI5QListI19QPlaceContactDetailE9QIterableI13QMetaSequenceEN9QtPrivate33QSequentialIterableConvertFunctorIS3_EEEEbT1_EUlPKvPvE_@Qt_6 6.6.1
 _ZTSZN9QMetaType17registerConverterI5QListI6QPlaceE9QIterableI13QMetaSequenceEN9QtPrivate33QSequentialIterableConvertFunctorIS3_EEEEbT1_EUlPKvPvE_@Qt_6 6.6.1
 _ZTSZN9QMetaType17registerConverterI5QListI9QGeoRouteE9QIterableI13QMetaSequenceEN9QtPrivate33QSequentialIterableConvertFunctorIS3_EEEEbT1_EUlPKvPvE_@Qt_6 6.6.1
 _ZTSZN9QMetaType17registerConverterI5QListIP10QQuickItemE9QIterableI13QMetaSequenceEN9QtPrivate33QSequentialIterableConvertFunctorIS4_EEEEbT1_EUlPKvPvE_@Qt_6 6.6.1
 _ZTSZN9QMetaType17registerConverterI5QListIP7QObjectE9QIterableI13QMetaSequenceEN9QtPrivate33QSequentialIterableConvertFunctorIS4_EEEEbT1_EUlPKvPvE_@Qt_6 6.6.1
 _ZTSZN9QMetaType17registerConverterI5QListIiE9QIterableI13QMetaSequenceEN9QtPrivate33QSequentialIterableConvertFunctorIS2_EEEEbT1_EUlPKvPvE_@Qt_6 6.6.1
 _ZTSZN9QMetaType19registerMutableViewI5QListI10QPlaceIconE9QIterableI13QMetaSequenceEN9QtPrivate37QSequentialIterableMutableViewFunctorIS3_EEEEbT1_EUlPvSB_E_@Qt_6 6.6.1
 _ZTSZN9QMetaType19registerMutableViewI5QListI10QPlaceUserE9QIterableI13QMetaSequenceEN9QtPrivate37QSequentialIterableMutableViewFunctorIS3_EEEEbT1_EUlPvSB_E_@Qt_6 6.6.1
 _ZTSZN9QMetaType19registerMutableViewI5QListI12QGeoManeuverE9QIterableI13QMetaSequenceEN9QtPrivate37QSequentialIterableMutableViewFunctorIS3_EEEEbT1_EUlPvSB_E_@Qt_6 6.6.1
 _ZTSZN9QMetaType19registerMutableViewI5QListI13QGeoRectangleE9QIterableI13QMetaSequenceEN9QtPrivate37QSequentialIterableMutableViewFunctorIS3_EEEEbT1_EUlPvSB_E_@Qt_6 6.6.1
 _ZTSZN9QMetaType19registerMutableViewI5QListI13QPlaceRatingsE9QIterableI13QMetaSequenceEN9QtPrivate37QSequentialIterableMutableViewFunctorIS3_EEEEbT1_EUlPvSB_E_@Qt_6 6.6.1
 _ZTSZN9QMetaType19registerMutableViewI5QListI14QGeoCoordinateE9QIterableI13QMetaSequenceEN9QtPrivate37QSequentialIterableMutableViewFunctorIS3_EEEEbT1_EUlPvSB_E_@Qt_6 6.6.1
 _ZTSZN9QMetaType19registerMutableViewI5QListI14QPlaceSupplierE9QIterableI13QMetaSequenceEN9QtPrivate37QSequentialIterableMutableViewFunctorIS3_EEEEbT1_EUlPvSB_E_@Qt_6 6.6.1
 _ZTSZN9QMetaType19registerMutableViewI5QListI15QPlaceAttributeE9QIterableI13QMetaSequenceEN9QtPrivate37QSequentialIterableMutableViewFunctorIS3_EEEEbT1_EUlPvSB_E_@Qt_6 6.6.1
 _ZTSZN9QMetaType19registerMutableViewI5QListI16QGeoRouteSegmentE9QIterableI13QMetaSequenceEN9QtPrivate37QSequentialIterableMutableViewFunctorIS3_EEEEbT1_EUlPvSB_E_@Qt_6 6.6.1
 _ZTSZN9QMetaType19registerMutableViewI5QListI19QPlaceContactDetailE9QIterableI13QMetaSequenceEN9QtPrivate37QSequentialIterableMutableViewFunctorIS3_EEEEbT1_EUlPvSB_E_@Qt_6 6.6.1
 _ZTSZN9QMetaType19registerMutableViewI5QListI6QPlaceE9QIterableI13QMetaSequenceEN9QtPrivate37QSequentialIterableMutableViewFunctorIS3_EEEEbT1_EUlPvSB_E_@Qt_6 6.6.1
 _ZTSZN9QMetaType19registerMutableViewI5QListI9QGeoRouteE9QIterableI13QMetaSequenceEN9QtPrivate37QSequentialIterableMutableViewFunctorIS3_EEEEbT1_EUlPvSB_E_@Qt_6 6.6.1
 _ZTSZN9QMetaType19registerMutableViewI5QListIP10QQuickItemE9QIterableI13QMetaSequenceEN9QtPrivate37QSequentialIterableMutableViewFunctorIS4_EEEEbT1_EUlPvSC_E_@Qt_6 6.6.1
 _ZTSZN9QMetaType19registerMutableViewI5QListIP7QObjectE9QIterableI13QMetaSequenceEN9QtPrivate37QSequentialIterableMutableViewFunctorIS4_EEEEbT1_EUlPvSC_E_@Qt_6 6.6.1
 _ZTSZN9QMetaType19registerMutableViewI5QListIiE9QIterableI13QMetaSequenceEN9QtPrivate37QSequentialIterableMutableViewFunctorIS2_EEEEbT1_EUlPvSA_E_@Qt_6 6.6.1
 _ZTV11QPlaceReply@Qt_6 6.6.1
 _ZTV12QPlaceResult@Qt_6 6.6.1
 _ZTV13QGeoCodeReply@Qt_6 6.6.1
 _ZTV13QPlaceIdReply@Qt_6 6.6.1
 _ZTV13QPlaceManager@Qt_6 6.6.1
 _ZTV14QGeoRouteReply@Qt_6 6.6.1
 _ZTV16QPlaceMatchReply@Qt_6 6.6.1
 _ZTV17QGeoCodingManager@Qt_6 6.6.1
 _ZTV17QPlaceSearchReply@Qt_6 6.6.1
 _ZTV18QGeoRoutingManager@Qt_6 6.6.1
 _ZTV18QPlaceContentReply@Qt_6 6.6.1
 _ZTV18QPlaceDetailsReply@Qt_6 6.6.1
 _ZTV18QPlaceSearchResult@Qt_6 6.6.1
 _ZTV19QGeoServiceProvider@Qt_6 6.6.1
 _ZTV19QPlaceManagerEngine@Qt_6 6.6.1
 _ZTV23QGeoCodingManagerEngine@Qt_6 6.6.1
 _ZTV24QGeoRoutingManagerEngine@Qt_6 6.6.1
 _ZTV26QGeoServiceProviderFactory@Qt_6 6.6.1
 _ZTV26QPlaceProposedSearchResult@Qt_6 6.6.1
 _ZTV27QPlaceSearchSuggestionReply@Qt_6 6.6.1
 (optional=templinst)_ZZN9QMetaType21registerConverterImplI5QListI10QPlaceIconE9QIterableI13QMetaSequenceEEEbSt8functionIFbPKvPvEES_S_E10unregister@Qt_6 6.6.1
 (optional=templinst)_ZZN9QMetaType21registerConverterImplI5QListI10QPlaceUserE9QIterableI13QMetaSequenceEEEbSt8functionIFbPKvPvEES_S_E10unregister@Qt_6 6.6.1
 (optional=templinst)_ZZN9QMetaType21registerConverterImplI5QListI12QGeoManeuverE9QIterableI13QMetaSequenceEEEbSt8functionIFbPKvPvEES_S_E10unregister@Qt_6 6.6.1
 (optional=templinst)_ZZN9QMetaType21registerConverterImplI5QListI13QGeoRectangleE9QIterableI13QMetaSequenceEEEbSt8functionIFbPKvPvEES_S_E10unregister@Qt_6 6.6.1
 (optional=templinst)_ZZN9QMetaType21registerConverterImplI5QListI13QPlaceRatingsE9QIterableI13QMetaSequenceEEEbSt8functionIFbPKvPvEES_S_E10unregister@Qt_6 6.6.1
 (optional=templinst)_ZZN9QMetaType21registerConverterImplI5QListI14QGeoCoordinateE9QIterableI13QMetaSequenceEEEbSt8functionIFbPKvPvEES_S_E10unregister@Qt_6 6.6.1
 (optional=templinst)_ZZN9QMetaType21registerConverterImplI5QListI14QPlaceSupplierE9QIterableI13QMetaSequenceEEEbSt8functionIFbPKvPvEES_S_E10unregister@Qt_6 6.6.1
 (optional=templinst)_ZZN9QMetaType21registerConverterImplI5QListI15QPlaceAttributeE9QIterableI13QMetaSequenceEEEbSt8functionIFbPKvPvEES_S_E10unregister@Qt_6 6.6.1
 (optional=templinst)_ZZN9QMetaType21registerConverterImplI5QListI16QGeoRouteSegmentE9QIterableI13QMetaSequenceEEEbSt8functionIFbPKvPvEES_S_E10unregister@Qt_6 6.6.1
 (optional=templinst)_ZZN9QMetaType21registerConverterImplI5QListI19QPlaceContactDetailE9QIterableI13QMetaSequenceEEEbSt8functionIFbPKvPvEES_S_E10unregister@Qt_6 6.6.1
 (optional=templinst)_ZZN9QMetaType21registerConverterImplI5QListI6QPlaceE9QIterableI13QMetaSequenceEEEbSt8functionIFbPKvPvEES_S_E10unregister@Qt_6 6.6.1
 (optional=templinst)_ZZN9QMetaType21registerConverterImplI5QListI9QGeoRouteE9QIterableI13QMetaSequenceEEEbSt8functionIFbPKvPvEES_S_E10unregister@Qt_6 6.6.1
 (optional=templinst)_ZZN9QMetaType21registerConverterImplI5QListIP10QQuickItemE9QIterableI13QMetaSequenceEEEbSt8functionIFbPKvPvEES_S_E10unregister@Qt_6 6.6.1
 (optional=templinst)_ZZN9QMetaType21registerConverterImplI5QListIP7QObjectE9QIterableI13QMetaSequenceEEEbSt8functionIFbPKvPvEES_S_E10unregister@Qt_6 6.6.1
 (optional=templinst)_ZZN9QMetaType21registerConverterImplI5QListIiE9QIterableI13QMetaSequenceEEEbSt8functionIFbPKvPvEES_S_E10unregister@Qt_6 6.6.1
 (optional=templinst)_ZZN9QMetaType23registerMutableViewImplI5QListI10QPlaceIconE9QIterableI13QMetaSequenceEEEbSt8functionIFbPvS8_EES_S_E10unregister@Qt_6 6.6.1
 (optional=templinst)_ZZN9QMetaType23registerMutableViewImplI5QListI10QPlaceUserE9QIterableI13QMetaSequenceEEEbSt8functionIFbPvS8_EES_S_E10unregister@Qt_6 6.6.1
 (optional=templinst)_ZZN9QMetaType23registerMutableViewImplI5QListI12QGeoManeuverE9QIterableI13QMetaSequenceEEEbSt8functionIFbPvS8_EES_S_E10unregister@Qt_6 6.6.1
 (optional=templinst)_ZZN9QMetaType23registerMutableViewImplI5QListI13QGeoRectangleE9QIterableI13QMetaSequenceEEEbSt8functionIFbPvS8_EES_S_E10unregister@Qt_6 6.6.1
 (optional=templinst)_ZZN9QMetaType23registerMutableViewImplI5QListI13QPlaceRatingsE9QIterableI13QMetaSequenceEEEbSt8functionIFbPvS8_EES_S_E10unregister@Qt_6 6.6.1
 (optional=templinst)_ZZN9QMetaType23registerMutableViewImplI5QListI14QGeoCoordinateE9QIterableI13QMetaSequenceEEEbSt8functionIFbPvS8_EES_S_E10unregister@Qt_6 6.6.1
 (optional=templinst)_ZZN9QMetaType23registerMutableViewImplI5QListI14QPlaceSupplierE9QIterableI13QMetaSequenceEEEbSt8functionIFbPvS8_EES_S_E10unregister@Qt_6 6.6.1
 (optional=templinst)_ZZN9QMetaType23registerMutableViewImplI5QListI15QPlaceAttributeE9QIterableI13QMetaSequenceEEEbSt8functionIFbPvS8_EES_S_E10unregister@Qt_6 6.6.1
 (optional=templinst)_ZZN9QMetaType23registerMutableViewImplI5QListI16QGeoRouteSegmentE9QIterableI13QMetaSequenceEEEbSt8functionIFbPvS8_EES_S_E10unregister@Qt_6 6.6.1
 (optional=templinst)_ZZN9QMetaType23registerMutableViewImplI5QListI19QPlaceContactDetailE9QIterableI13QMetaSequenceEEEbSt8functionIFbPvS8_EES_S_E10unregister@Qt_6 6.6.1
 (optional=templinst)_ZZN9QMetaType23registerMutableViewImplI5QListI6QPlaceE9QIterableI13QMetaSequenceEEEbSt8functionIFbPvS8_EES_S_E10unregister@Qt_6 6.6.1
 (optional=templinst)_ZZN9QMetaType23registerMutableViewImplI5QListI9QGeoRouteE9QIterableI13QMetaSequenceEEEbSt8functionIFbPvS8_EES_S_E10unregister@Qt_6 6.6.1
 (optional=templinst)_ZZN9QMetaType23registerMutableViewImplI5QListIP10QQuickItemE9QIterableI13QMetaSequenceEEEbSt8functionIFbPvS9_EES_S_E10unregister@Qt_6 6.6.1
 (optional=templinst)_ZZN9QMetaType23registerMutableViewImplI5QListIP7QObjectE9QIterableI13QMetaSequenceEEEbSt8functionIFbPvS9_EES_S_E10unregister@Qt_6 6.6.1
 (optional=templinst)_ZZN9QMetaType23registerMutableViewImplI5QListIiE9QIterableI13QMetaSequenceEEEbSt8functionIFbPvS7_EES_S_E10unregister@Qt_6 6.6.1
